(dp0
S'METTS MARK'
p1
(dp2
S'expenses_log'
p3
F11.45422586411145
sS'to_messages'
p4
I807
sS'deferral_payments'
p5
S'NaN'
p6
sS'bonus_log'
p7
F13.304684934198283
sS'expenses'
p8
I94299
sS'poi'
p9
I00
sS'deferred_income'
p10
g6
sS'restricted_stock_log'
p11
F13.279473103504184
sS'email_address'
p12
S'mark.metts@enron.com'
p13
sS'long_term_incentive'
p14
g6
sS'poi_ratio_from'
p15
F0.034482758620689655
sS'restricted_stock_deferred_log'
p16
S'NaN'
p17
sS'salary_log'
p18
F12.80980920958944
sS'restricted_stock_deferred'
p19
g6
sS'director_fees_log'
p20
g17
sS'shared_receipt_with_poi'
p21
I702
sS'loan_advances'
p22
g6
sS'from_messages'
p23
I29
sS'other'
p24
I1740
sS'exercised_stock_options_log'
p25
g17
sS'poi_ratio_to'
p26
F0.04708798017348203
sS'director_fees'
p27
g6
sS'total_stock_value_log'
p28
F13.279473103504184
sS'bonus'
p29
I600000
sS'total_stock_value'
p30
I585062
sS'from_poi_to_this_person'
p31
I38
sS'deferral_payments_log'
p32
g17
sS'other_log'
p33
F7.461640392208575
sS'from_this_person_to_poi'
p34
I1
sS'total_payments_log'
p35
F13.87550156732602
sS'restricted_stock'
p36
I585062
sS'long_term_incentive_log'
p37
g17
sS'salary'
p38
I365788
sS'total_payments'
p39
I1061827
sS'exercised_stock_options'
p40
g6
sS'loan_advances_log'
p41
g17
sS'deferred_income_log'
p42
g17
ssS'BAXTER JOHN C'
p43
(dp44
S'expenses_log'
p45
F9.323669057283185
sg4
g6
sg5
I1295738
sS'bonus_log'
p46
F13.997832114758229
sg8
I11200
sg9
I00
sg10
I-1386055
sS'restricted_stock_log'
p47
F15.18737987662522
sg12
g6
sg14
I1586055
sg15
g17
sS'restricted_stock_deferred_log'
p48
g17
sS'salary_log'
p49
F12.495385886902291
sg19
g6
sS'director_fees_log'
p50
g17
sg21
g6
sg22
g6
sg23
g6
sg24
I2660303
sS'exercised_stock_options_log'
p51
F15.714709979322754
sg26
g17
sg27
g6
sS'total_stock_value_log'
p52
F16.178556306391826
sg29
I1200000
sg30
I10623258
sg31
g6
sS'deferral_payments_log'
p53
F14.074590974963343
sS'other_log'
p54
F14.793950584045092
sg34
g6
sS'total_payments_log'
p55
F15.544391105934508
sg36
I3942714
sS'long_term_incentive_log'
p56
F14.276760359011964
sg38
I267102
sg39
I5634343
sg40
I6680544
sS'loan_advances_log'
p57
g17
sS'deferred_income_log'
p58
g17
ssS'ELLIOTT STEVEN'
p59
(dp60
S'expenses_log'
p61
F11.271516104849127
sg4
g6
sg5
g6
sS'bonus_log'
p62
F12.765688433465597
sg8
I78552
sg9
I00
sg10
I-400729
sS'restricted_stock_log'
p63
F14.396826890898076
sg12
S'steven.elliott@enron.com'
p64
sg14
g6
sg15
g17
sS'restricted_stock_deferred_log'
p65
g17
sS'salary_log'
p66
F12.049073746708748
sg19
g6
sS'director_fees_log'
p67
g17
sg21
g6
sg22
g6
sg23
g6
sg24
I12961
sS'exercised_stock_options_log'
p68
F15.402773206625037
sg26
g17
sg27
g6
sS'total_stock_value_log'
p69
F15.714439156322342
sg29
I350000
sg30
I6678735
sg31
g6
sS'deferral_payments_log'
p70
g17
sS'other_log'
p71
F9.469700127423375
sg34
g6
sS'total_payments_log'
p72
F12.2630435417898
sg36
I1788391
sS'long_term_incentive_log'
p73
g17
sg38
I170941
sg39
I211725
sg40
I4890344
sS'loan_advances_log'
p74
g17
sS'deferred_income_log'
p75
g17
ssS'CORDES WILLIAM R'
p76
(dp77
S'expenses_log'
p78
g17
sg4
I764
sg5
g6
sS'bonus_log'
p79
g17
sg8
g6
sg9
I00
sg10
g6
sS'restricted_stock_log'
p80
F12.864460147708321
sg12
S'bill.cordes@enron.com'
p81
sg14
g6
sg15
F0.0
sS'restricted_stock_deferred_log'
p82
g17
sS'salary_log'
p83
g17
sg19
g6
sS'director_fees_log'
p84
g17
sg21
I58
sg22
g6
sg23
I12
sg24
g6
sS'exercised_stock_options_log'
p85
F13.387569753090926
sg26
F0.013089005235602094
sg27
g6
sS'total_stock_value_log'
p86
F13.852984554187671
sg29
g6
sg30
I1038185
sg31
I10
sS'deferral_payments_log'
p87
g17
sS'other_log'
p88
g17
sg34
I0
sS'total_payments_log'
p89
g17
sg36
I386335
sS'long_term_incentive_log'
p90
g17
sg38
g6
sg39
g6
sg40
I651850
sS'loan_advances_log'
p91
g17
sS'deferred_income_log'
p92
g17
ssS'HANNON KEVIN P'
p93
(dp94
S'expenses_log'
p95
F10.435262205052501
sg4
I1045
sg5
g6
sS'bonus_log'
p96
F14.22097566607244
sg8
I34039
sg9
I01
sg10
I-3117011
sS'restricted_stock_log'
p97
F13.656589852967581
sg12
S'kevin.hannon@enron.com'
p98
sg14
I1617011
sg15
F0.65625
sS'restricted_stock_deferred_log'
p99
g17
sS'salary_log'
p100
F12.40202175729319
sg19
g6
sS'director_fees_log'
p101
g17
sg21
I1035
sg22
g6
sg23
I32
sg24
I11350
sS'exercised_stock_options_log'
p102
F15.527144163283632
sg26
F0.03062200956937799
sg27
g6
sS'total_stock_value_log'
p103
F15.670411479133039
sg29
I1500000
sg30
I6391065
sg31
I32
sS'deferral_payments_log'
p104
g17
sS'other_log'
p105
F9.336973022909548
sg34
I21
sS'total_payments_log'
p106
F12.573081015248674
sg36
I853064
sS'long_term_incentive_log'
p107
F14.296089941257193
sg38
I243293
sg39
I288682
sg40
I5538001
sS'loan_advances_log'
p108
g17
sS'deferred_income_log'
p109
g17
ssS'MORDAUNT KRISTINA M'
p110
(dp111
S'expenses_log'
p112
F10.463617493986263
sg4
g6
sg5
g6
sS'bonus_log'
p113
F12.691580461311874
sg8
I35018
sg9
I00
sg10
g6
sS'restricted_stock_log'
p114
F12.247742280701566
sg12
S'kristina.mordaunt@enron.com'
p115
sg14
g6
sg15
g17
sS'restricted_stock_deferred_log'
p116
g17
sS'salary_log'
p117
F12.495352191341677
sg19
g6
sS'director_fees_log'
p118
g17
sg21
g6
sg22
g6
sg23
g6
sg24
I1411
sS'exercised_stock_options_log'
p119
g17
sg26
g17
sg27
g6
sS'total_stock_value_log'
p120
F12.247742280701566
sg29
I325000
sg30
I208510
sg31
g6
sS'deferral_payments_log'
p121
g17
sS'other_log'
p122
F7.252053951852814
sg34
g6
sS'total_payments_log'
p123
F13.35112631037754
sg36
I208510
sS'long_term_incentive_log'
p124
g17
sg38
I267093
sg39
I628522
sg40
g6
sS'loan_advances_log'
p125
g17
sS'deferred_income_log'
p126
g17
ssS'MEYER ROCKFORD G'
p127
(dp128
S'expenses_log'
p129
g17
sg4
I232
sg5
I1848227
sS'bonus_log'
p130
g17
sg8
g6
sg9
I00
sg10
g6
sS'restricted_stock_log'
p131
F13.044150993665514
sg12
S'rockford.meyer@enron.com'
p132
sg14
g6
sg15
F0.0
sS'restricted_stock_deferred_log'
p133
g17
sS'salary_log'
p134
g17
sg19
g6
sS'director_fees_log'
p135
g17
sg21
I22
sg22
g6
sg23
I28
sg24
g6
sS'exercised_stock_options_log'
p136
F13.109255847840283
sg26
F0.0
sg27
g6
sS'total_stock_value_log'
p137
F13.77038033802055
sg29
g6
sg30
I955873
sg31
I0
sS'deferral_payments_log'
p138
F14.42973735913794
sS'other_log'
p139
g17
sg34
I0
sS'total_payments_log'
p140
F14.42973735913794
sg36
I462384
sS'long_term_incentive_log'
p141
g17
sg38
g6
sg39
I1848227
sg40
I493489
sS'loan_advances_log'
p142
g17
sS'deferred_income_log'
p143
g17
ssS'MCMAHON JEFFREY'
p144
(dp145
S'expenses_log'
p146
F11.828524215416218
sg4
I2355
sg5
g6
sS'bonus_log'
p147
F14.77102200299171
sg8
I137108
sg9
I00
sg10
g6
sS'restricted_stock_log'
p148
F13.233548695912376
sg12
S'jeffrey.mcmahon@enron.com'
p149
sg14
I694862
sg15
F0.5416666666666666
sS'restricted_stock_deferred_log'
p150
g17
sS'salary_log'
p151
F12.82246836299098
sg19
g6
sS'director_fees_log'
p152
g17
sg21
I2228
sg22
g6
sg23
I48
sg24
I297353
sS'exercised_stock_options_log'
p153
F13.914499417666452
sg26
F0.024628450106157114
sg27
g6
sS'total_stock_value_log'
p154
F14.324046562551628
sg29
I2600000
sg30
I1662855
sg31
I58
sS'deferral_payments_log'
p155
g17
sS'other_log'
p156
F12.602675264204409
sg34
I26
sS'total_payments_log'
p157
F15.226441676456126
sg36
I558801
sS'long_term_incentive_log'
p158
F13.451468543679974
sg38
I370448
sg39
I4099771
sg40
I1104054
sS'loan_advances_log'
p159
g17
sS'deferred_income_log'
p160
g17
ssS'HORTON STANLEY C'
p161
(dp162
S'expenses_log'
p163
g17
sg4
I2350
sg5
I3131860
sS'bonus_log'
p164
g17
sg8
g6
sg9
I00
sg10
g6
sS'restricted_stock_log'
p165
F14.531435836673996
sg12
S'stanley.horton@enron.com'
p166
sg14
g6
sg15
F0.013979496738117428
sS'restricted_stock_deferred_log'
p167
g17
sS'salary_log'
p168
g17
sg19
g6
sS'director_fees_log'
p169
g17
sg21
I1074
sg22
g6
sg23
I1073
sg24
g6
sS'exercised_stock_options_log'
p170
F15.466199620818061
sg26
F0.01872340425531915
sg27
g6
sS'total_stock_value_log'
p171
F15.797428572192045
sg29
g6
sg30
I7256648
sg31
I44
sS'deferral_payments_log'
p172
F14.957137635221475
sS'other_log'
p173
g17
sg34
I15
sS'total_payments_log'
p174
F14.957137635221475
sg36
I2046079
sS'long_term_incentive_log'
p175
g17
sg38
g6
sg39
I3131860
sg40
I5210569
sS'loan_advances_log'
p176
g17
sS'deferred_income_log'
p177
g17
ssS'PIPER GREGORY F'
p178
(dp179
S'expenses_log'
p180
F10.670280098263682
sg4
I1238
sg5
I1130036
sS'bonus_log'
p181
F12.89921982609012
sg8
I43057
sg9
I00
sg10
I-33333
sS'restricted_stock_log'
p182
F12.922824041713291
sg12
S'greg.piper@enron.com'
p183
sg14
g6
sg15
F0.21621621621621623
sS'restricted_stock_deferred_log'
p184
g17
sS'salary_log'
p185
F12.19142082999781
sg19
I-409554
sS'director_fees_log'
p186
g17
sg21
I742
sg22
g6
sg23
I222
sg24
I778
sS'exercised_stock_options_log'
p187
F13.688006677620757
sg26
F0.049273021001615507
sg27
g6
sS'total_stock_value_log'
p188
F13.688006677620757
sg29
I400000
sg30
I880290
sg31
I61
sS'deferral_payments_log'
p189
F13.937760048588135
sS'other_log'
p190
F6.656726524178391
sg34
I48
sS'total_payments_log'
p191
F14.368032098269406
sg36
I409554
sS'long_term_incentive_log'
p192
g17
sg38
I197091
sg39
I1737629
sg40
I880290
sS'loan_advances_log'
p193
g17
sS'deferred_income_log'
p194
g17
ssS'HUMPHREY GENE E'
p195
(dp196
S'expenses_log'
p197
F8.515992470839718
sg4
I128
sg5
I2964506
sS'bonus_log'
p198
g17
sg8
I4994
sg9
I00
sg10
g6
sS'restricted_stock_log'
p199
g17
sg12
S'gene.humphrey@enron.com'
p200
sg14
g6
sg15
F1.0
sS'restricted_stock_deferred_log'
p201
g17
sS'salary_log'
p202
F11.780843509380869
sg19
g6
sS'director_fees_log'
p203
g17
sg21
I119
sg22
g6
sg23
I17
sg24
g6
sS'exercised_stock_options_log'
p204
F14.64089929967365
sg26
F0.078125
sg27
g6
sS'total_stock_value_log'
p205
F14.64089929967365
sg29
g6
sg30
I2282768
sg31
I10
sS'deferral_payments_log'
p206
F14.902220966077588
sS'other_log'
p207
g17
sg34
I17
sS'total_payments_log'
p208
F14.946984924909403
sg36
g6
sS'long_term_incentive_log'
p209
g17
sg38
I130724
sg39
I3100224
sg40
I2282768
sS'loan_advances_log'
p210
g17
sS'deferred_income_log'
p211
g17
ssS'UMANOFF ADAM S'
p212
(dp213
S'expenses_log'
p214
F10.88034643404396
sg4
I111
sg5
g6
sS'bonus_log'
p215
F13.57820469283756
sg8
I53122
sg9
I00
sg10
g6
sS'restricted_stock_log'
p216
g17
sg12
S'adam.umanoff@enron.com'
p217
sg14
g6
sg15
F0.0
sS'restricted_stock_deferred_log'
p218
g17
sS'salary_log'
p219
F12.572758809557396
sg19
g6
sS'director_fees_log'
p220
g17
sg21
I41
sg22
g6
sg23
I18
sg24
g6
sS'exercised_stock_options_log'
p221
g17
sg26
F0.10810810810810811
sg27
g6
sS'total_stock_value_log'
p222
g17
sg29
I788750
sg30
g6
sg31
I12
sS'deferral_payments_log'
p223
g17
sS'other_log'
p224
g17
sg34
I0
sS'total_payments_log'
p225
F13.93813607209536
sg36
g6
sS'long_term_incentive_log'
p226
g17
sg38
I288589
sg39
I1130461
sg40
g6
sS'loan_advances_log'
p227
g17
sS'deferred_income_log'
p228
g17
ssS'BLACHMAN JEREMY M'
p229
(dp230
S'expenses_log'
p231
F11.34104520759356
sg4
I2475
sg5
g6
sS'bonus_log'
p232
F13.652991628466498
sg8
I84208
sg9
I00
sg10
g6
sS'restricted_stock_log'
p233
F12.149719201732536
sg12
S'jeremy.blachman@enron.com'
p234
sg14
I831809
sg15
F0.14285714285714285
sS'restricted_stock_deferred_log'
p235
g17
sS'salary_log'
p236
F12.423383218051939
sg19
g6
sS'director_fees_log'
p237
g17
sg21
I2326
sg22
g6
sg23
I14
sg24
I272
sS'exercised_stock_options_log'
p238
F13.548040179456299
sg26
F0.010101010101010102
sg27
g6
sS'total_stock_value_log'
p239
F13.76878995078367
sg29
I850000
sg30
I954354
sg31
I25
sS'deferral_payments_log'
p240
g17
sS'other_log'
p241
F5.605802066295998
sg34
I2
sS'total_payments_log'
p242
F14.516047864154011
sg36
I189041
sS'long_term_incentive_log'
p243
F13.631358126141045
sg38
I248546
sg39
I2014835
sg40
I765313
sS'loan_advances_log'
p244
g17
sS'deferred_income_log'
p245
g17
ssS'SUNDE MARTIN'
p246
(dp247
S'expenses_log'
p248
g17
sg4
I2647
sg5
g6
sS'bonus_log'
p249
F13.458835614025542
sg8
g6
sg9
I00
sg10
g6
sS'restricted_stock_log'
p250
F13.457291565452975
sg12
S'marty.sunde@enron.com'
p251
sg14
I476451
sg15
F0.34210526315789475
sS'restricted_stock_deferred_log'
p252
g17
sS'salary_log'
p253
F12.458720628675845
sg19
g6
sS'director_fees_log'
p254
g17
sg21
I2565
sg22
g6
sg23
I38
sg24
I111122
sS'exercised_stock_options_log'
p255
g17
sg26
F0.013978088401964487
sg27
g6
sS'total_stock_value_log'
p256
F13.457291565452975
sg29
I700000
sg30
I698920
sg31
I37
sS'deferral_payments_log'
p257
g17
sS'other_log'
p258
F11.618383975826369
sg34
I13
sS'total_payments_log'
p259
F14.250572655287117
sg36
I698920
sS'long_term_incentive_log'
p260
F13.074120163630255
sg38
I257486
sg39
I1545059
sg40
g6
sS'loan_advances_log'
p261
g17
sS'deferred_income_log'
p262
g17
ssS'GIBBS DANA R'
p263
(dp264
S'expenses_log'
p265
g17
sg4
I169
sg5
I504610
sS'bonus_log'
p266
g17
sg8
g6
sg9
I00
sg10
g6
sS'restricted_stock_log'
p267
g17
sg12
S'dana.gibbs@enron.com'
p268
sg14
I461912
sg15
F0.0
sS'restricted_stock_deferred_log'
p269
g17
sS'salary_log'
p270
g17
sg19
g6
sS'director_fees_log'
p271
g17
sg21
I23
sg22
g6
sg23
I12
sg24
g6
sS'exercised_stock_options_log'
p272
F14.612240424779461
sg26
F0.0
sg27
g6
sS'total_stock_value_log'
p273
F14.612240424779461
sg29
g6
sg30
I2218275
sg31
I0
sS'deferral_payments_log'
p274
F13.131541132670096
sS'other_log'
p275
g17
sg34
I0
sS'total_payments_log'
p276
F13.781459339916726
sg36
g6
sS'long_term_incentive_log'
p277
F13.043129675730507
sg38
g6
sg39
I966522
sg40
I2218275
sS'loan_advances_log'
p278
g17
sS'deferred_income_log'
p279
g17
ssS'LOWRY CHARLES P'
p280
(dp281
S'expenses_log'
p282
g17
sg4
g6
sg5
g6
sS'bonus_log'
p283
g17
sg8
g6
sg9
I00
sg10
g6
sS'restricted_stock_log'
p284
F11.942666838845852
sg12
g6
sg14
g6
sg15
g17
sS'restricted_stock_deferred_log'
p285
g17
sS'salary_log'
p286
g17
sg19
I-153686
sS'director_fees_log'
p287
g17
sg21
g6
sg22
g6
sg23
g6
sg24
g6
sS'exercised_stock_options_log'
p288
F12.827200056737887
sg26
g17
sg27
g6
sS'total_stock_value_log'
p289
F12.827200056737887
sg29
g6
sg30
I372205
sg31
g6
sS'deferral_payments_log'
p290
g17
sS'other_log'
p291
g17
sg34
g6
sS'total_payments_log'
p292
g17
sg36
I153686
sS'long_term_incentive_log'
p293
g17
sg38
g6
sg39
g6
sg40
I372205
sS'loan_advances_log'
p294
g17
sS'deferred_income_log'
p295
g17
ssS'COLWELL WESLEY'
p296
(dp297
S'expenses_log'
p298
F9.711963784977375
sg4
I1758
sg5
I27610
sS'bonus_log'
p299
F13.997832114758229
sg8
I16514
sg9
I01
sg10
I-144062
sS'restricted_stock_log'
p300
F13.456321026527323
sg12
S'wes.colwell@enron.com'
p301
sg14
g6
sg15
F0.275
sS'restricted_stock_deferred_log'
p302
g17
sS'salary_log'
p303
F12.57259593492372
sg19
g6
sS'director_fees_log'
p304
g17
sg21
I1132
sg22
g6
sg23
I40
sg24
I101740
sS'exercised_stock_options_log'
p305
g17
sg26
F0.13651877133105803
sg27
g6
sS'total_stock_value_log'
p306
F13.456321026527323
sg29
I1200000
sg30
I698242
sg31
I240
sS'deferral_payments_log'
p307
F10.225933304924201
sS'other_log'
p308
F11.530175818376756
sg34
I11
sS'total_payments_log'
p309
F14.214517523757912
sg36
I698242
sS'long_term_incentive_log'
p310
g17
sg38
I288542
sg39
I1490344
sg40
g6
sS'loan_advances_log'
p311
g17
sS'deferred_income_log'
p312
g17
ssS'MULLER MARK S'
p313
(dp314
S'expenses_log'
p315
g17
sg4
I136
sg5
I842924
sS'bonus_log'
p316
F13.9108207377686
sg8
g6
sg9
I00
sg10
I-719000
sS'restricted_stock_log'
p317
F12.795324902593903
sg12
S's..muller@enron.com'
p318
sg14
I1725545
sg15
F0.0
sS'restricted_stock_deferred_log'
p319
g17
sS'salary_log'
p320
F12.435810407170571
sg19
g6
sS'director_fees_log'
p321
g17
sg21
I114
sg22
g6
sg23
I16
sg24
I947
sS'exercised_stock_options_log'
p322
F13.870301727646964
sg26
F0.08823529411764706
sg27
g6
sS'total_stock_value_log'
p323
F14.163945244041189
sg29
I1100000
sg30
I1416848
sg31
I12
sS'deferral_payments_log'
p324
F13.644632078708707
sS'other_log'
p325
F6.853299093186078
sg34
I0
sS'total_payments_log'
p326
F14.979308033636507
sg36
I360528
sS'long_term_incentive_log'
p327
F14.361053500577409
sg38
I251654
sg39
I3202070
sg40
I1056320
sS'loan_advances_log'
p328
g17
sS'deferred_income_log'
p329
g17
ssS'JACKSON CHARLENE R'
p330
(dp331
S'expenses_log'
p332
F9.228278517107196
sg4
I258
sg5
g6
sS'bonus_log'
p333
F12.429216196844383
sg8
I10181
sg9
I00
sg10
g6
sS'restricted_stock_log'
p334
F13.200568089305715
sg12
S'charlene.jackson@enron.com'
p335
sg14
g6
sg15
F0.3392857142857143
sS'restricted_stock_deferred_log'
p336
g17
sS'salary_log'
p337
F12.572651384585837
sg19
g6
sS'director_fees_log'
p338
g17
sg21
I117
sg22
g6
sg23
I56
sg24
I2435
sS'exercised_stock_options_log'
p339
F12.128451586630232
sg26
F0.09689922480620156
sg27
g6
sS'total_stock_value_log'
p340
F13.494940213399085
sg29
I250000
sg30
I725735
sg31
I25
sS'deferral_payments_log'
p341
g17
sS'other_log'
p342
F7.79770203551669
sg34
I19
sS'total_payments_log'
p343
F13.219805827757735
sg36
I540672
sS'long_term_incentive_log'
p344
g17
sg38
I288558
sg39
I551174
sg40
I185063
sS'loan_advances_log'
p345
g17
sS'deferred_income_log'
p346
g17
ssS'WESTFAHL RICHARD K'
p347
(dp348
S'expenses_log'
p349
F10.856495867345446
sg4
g6
sg5
g6
sS'bonus_log'
p350
g17
sg8
I51870
sg9
I00
sg10
I-10800
sS'restricted_stock_log'
p351
F12.860816778557174
sg12
S'dick.westfahl@enron.com'
p352
sg14
I256191
sg15
g17
sS'restricted_stock_deferred_log'
p353
g17
sS'salary_log'
p354
F11.06263034094427
sg19
g6
sS'director_fees_log'
p355
g17
sg21
g6
sg22
g6
sg23
g6
sg24
I401130
sS'exercised_stock_options_log'
p356
g17
sg26
g17
sg27
g6
sS'total_stock_value_log'
p357
F12.860816778557174
sg29
g6
sg30
I384930
sg31
g6
sS'deferral_payments_log'
p358
g17
sS'other_log'
p359
F12.90204084327682
sg34
g6
sS'total_payments_log'
p360
F13.543878984331187
sg36
I384930
sS'long_term_incentive_log'
p361
F12.45367853902212
sg38
I63744
sg39
I762135
sg40
g6
sS'loan_advances_log'
p362
g17
sS'deferred_income_log'
p363
g17
ssS'WALTERS GARETH W'
p364
(dp365
S'expenses_log'
p366
F10.427772195986275
sg4
g6
sg5
I53625
sS'bonus_log'
p367
g17
sg8
I33785
sg9
I00
sg10
g6
sS'restricted_stock_log'
p368
g17
sg12
g6
sg14
g6
sg15
g17
sS'restricted_stock_deferred_log'
p369
g17
sS'salary_log'
p370
g17
sg19
g6
sS'director_fees_log'
p371
g17
sg21
g6
sg22
g6
sg23
g6
sg24
g6
sS'exercised_stock_options_log'
p372
F13.845388726678646
sg26
g17
sg27
g6
sS'total_stock_value_log'
p373
F13.845388726678646
sg29
g6
sg30
I1030329
sg31
g6
sS'deferral_payments_log'
p374
F10.889770656230318
sS'other_log'
p375
g17
sg34
g6
sS'total_payments_log'
p376
F11.378364971574534
sg36
g6
sS'long_term_incentive_log'
p377
g17
sg38
g6
sg39
I87410
sg40
I1030329
sS'loan_advances_log'
p378
g17
sS'deferred_income_log'
p379
g17
ssS'WALLS JR ROBERT H'
p380
(dp381
S'expenses_log'
p382
F10.838325221696861
sg4
I671
sg5
g6
sS'bonus_log'
p383
F13.652991628466498
sg8
I50936
sg9
I00
sg10
g6
sS'restricted_stock_log'
p384
F14.255346818579499
sg12
S'rob.walls@enron.com'
p385
sg14
I540751
sg15
F0.0
sS'restricted_stock_deferred_log'
p386
g17
sS'salary_log'
p387
F12.785745930240575
sg19
g6
sS'director_fees_log'
p388
g17
sg21
I215
sg22
g6
sg23
I146
sg24
I2
sS'exercised_stock_options_log'
p389
F15.28489160453756
sg26
F0.02533532041728763
sg27
g6
sS'total_stock_value_log'
p390
F15.59029289442431
sg29
I850000
sg30
I5898997
sg31
I17
sS'deferral_payments_log'
p391
g17
sS'other_log'
p392
F0.6931471805599453
sg34
I0
sS'total_payments_log'
p393
F14.402619215293418
sg36
I1552453
sS'long_term_incentive_log'
p394
F13.200714193096998
sg38
I357091
sg39
I1798780
sg40
I4346544
sS'loan_advances_log'
p395
g17
sS'deferred_income_log'
p396
g17
ssS'KITCHEN LOUISE'
p397
(dp398
S'expenses_log'
p399
F8.661120360222881
sg4
I8305
sg5
g6
sS'bonus_log'
p400
F14.946912669455374
sg8
I5774
sg9
I00
sg10
g6
sS'restricted_stock_log'
p401
F13.052157627820877
sg12
S'louise.kitchen@enron.com'
p402
sg14
g6
sg15
F0.11226851851851852
sS'restricted_stock_deferred_log'
p403
g17
sS'salary_log'
p404
F12.511503767541784
sg19
g6
sS'director_fees_log'
p405
g17
sg21
I3669
sg22
g6
sg23
I1728
sg24
I93925
sS'exercised_stock_options_log'
p406
F11.302722817788819
sg26
F0.030222757375075255
sg27
g6
sS'total_stock_value_log'
p407
F13.212465473198087
sg29
I3100000
sg30
I547143
sg31
I251
sS'deferral_payments_log'
p408
g17
sS'other_log'
p409
F11.45025187044217
sg34
I194
sS'total_payments_log'
p410
F15.059993916317909
sg36
I466101
sS'long_term_incentive_log'
p411
g17
sg38
I271442
sg39
I3471141
sg40
I81042
sS'loan_advances_log'
p412
g17
sS'deferred_income_log'
p413
g17
ssS'CHAN RONNIE'
p414
(dp415
S'expenses_log'
p416
g17
sg4
g6
sg5
g6
sS'bonus_log'
p417
g17
sg8
g6
sg9
I00
sg10
I-98784
sS'restricted_stock_log'
p418
F10.387763841068582
sg12
g6
sg14
g6
sg15
g17
sS'restricted_stock_deferred_log'
p419
g17
sS'salary_log'
p420
g17
sg19
I-32460
sS'director_fees_log'
p421
F11.500690927301886
sg21
g6
sg22
g6
sg23
g6
sg24
g6
sS'exercised_stock_options_log'
p422
g17
sg26
g17
sg27
I98784
sS'total_stock_value_log'
p423
g17
sg29
g6
sg30
g6
sg31
g6
sS'deferral_payments_log'
p424
g17
sS'other_log'
p425
g17
sg34
g6
sS'total_payments_log'
p426
g17
sg36
I32460
sS'long_term_incentive_log'
p427
g17
sg38
g6
sg39
g6
sg40
g6
sS'loan_advances_log'
p428
g17
sS'deferred_income_log'
p429
g17
ssS'BELFER ROBERT'
p430
(dp431
S'expenses_log'
p432
g17
sg4
g6
sg5
I-102500
sS'bonus_log'
p433
g17
sg8
g6
sg9
I00
sg10
g6
sS'restricted_stock_log'
p434
g17
sg12
g6
sg14
g6
sg15
g17
sS'restricted_stock_deferred_log'
p435
F10.694056318677243
sS'salary_log'
p436
g17
sg19
I44093
sS'director_fees_log'
p437
F8.09712193091871
sg21
g6
sg22
g6
sg23
g6
sg24
g6
sS'exercised_stock_options_log'
p438
F8.09712193091871
sg26
g17
sg27
I3285
sS'total_stock_value_log'
p439
g17
sg29
g6
sg30
I-44093
sg31
g6
sS'deferral_payments_log'
p440
g17
sS'other_log'
p441
g17
sg34
g6
sS'total_payments_log'
p442
F11.5376180775606
sg36
g6
sS'long_term_incentive_log'
p443
g17
sg38
g6
sg39
I102500
sg40
I3285
sS'loan_advances_log'
p444
g17
sS'deferred_income_log'
p445
g17
ssS'SHANKMAN JEFFREY A'
p446
(dp447
S'expenses_log'
p448
F12.095023759504793
sg4
I3221
sg5
g6
sS'bonus_log'
p449
F14.508657738524219
sg8
I178979
sg9
I00
sg10
g6
sS'restricted_stock_log'
p450
F13.353692535044107
sg12
S'jeffrey.shankman@enron.com'
p451
sg14
I554422
sg15
F0.030958597538232
sS'restricted_stock_deferred_log'
p452
g17
sS'salary_log'
p453
F12.625144757044556
sg19
g6
sS'director_fees_log'
p454
g17
sg21
I1730
sg22
g6
sg23
I2681
sg24
I1191
sS'exercised_stock_options_log'
p455
F14.181470859235034
sg26
F0.029183483390251473
sg27
g6
sS'total_stock_value_log'
p456
F14.544041774110736
sg29
I2000000
sg30
I2072035
sg31
I94
sS'deferral_payments_log'
p457
g17
sS'other_log'
p458
F7.0825485693553
sg34
I83
sS'total_payments_log'
p459
F14.926941008518975
sg36
I630137
sS'long_term_incentive_log'
p460
F13.225681408610182
sg38
I304110
sg39
I3038702
sg40
I1441898
sS'loan_advances_log'
p461
g17
sS'deferred_income_log'
p462
g17
ssS'WODRASKA JOHN'
p463
(dp464
S'expenses_log'
p465
g17
sg4
g6
sg5
g6
sS'bonus_log'
p466
g17
sg8
g6
sg9
I00
sg10
g6
sS'restricted_stock_log'
p467
g17
sg12
S'john.wodraska@enron.com'
p468
sg14
g6
sg15
g17
sS'restricted_stock_deferred_log'
p469
g17
sS'salary_log'
p470
g17
sg19
g6
sS'director_fees_log'
p471
g17
sg21
g6
sg22
g6
sg23
g6
sg24
I189583
sS'exercised_stock_options_log'
p472
g17
sg26
g17
sg27
g6
sS'total_stock_value_log'
p473
g17
sg29
g6
sg30
g6
sg31
g6
sS'deferral_payments_log'
p474
g17
sS'other_log'
p475
F12.152582202335884
sg34
g6
sS'total_payments_log'
p476
F12.152582202335884
sg36
g6
sS'long_term_incentive_log'
p477
g17
sg38
g6
sg39
I189583
sg40
g6
sS'loan_advances_log'
p478
g17
sS'deferred_income_log'
p479
g17
ssS'BERGSIEKER RICHARD P'
p480
(dp481
S'expenses_log'
p482
F10.988254434382185
sg4
I383
sg5
g6
sS'bonus_log'
p483
F12.429216196844383
sg8
I59175
sg9
I00
sg10
I-485813
sS'restricted_stock_log'
p484
F13.398856587339147
sg12
S'rick.bergsieker@enron.com'
p485
sg14
I180250
sg15
F0.0
sS'restricted_stock_deferred_log'
p486
g17
sS'salary_log'
p487
F12.143782262102894
sg19
g6
sS'director_fees_log'
p488
g17
sg21
I233
sg22
g6
sg23
I59
sg24
I427316
sS'exercised_stock_options_log'
p489
g17
sg26
F0.010443864229765013
sg27
g6
sS'total_stock_value_log'
p490
F13.398856587339147
sg29
I250000
sg30
I659249
sg31
I4
sS'deferral_payments_log'
p491
g17
sS'other_log'
p492
F12.965279065349533
sg34
I0
sS'total_payments_log'
p493
F13.335618195968168
sg36
I659249
sS'long_term_incentive_log'
p494
F12.102100055147195
sg38
I187922
sg39
I618850
sg40
g6
sS'loan_advances_log'
p495
g17
sS'deferred_income_log'
p496
g17
ssS'URQUHART JOHN A'
p497
(dp498
S'expenses_log'
p499
F12.339973969721576
sg4
g6
sg5
g6
sS'bonus_log'
p500
g17
sg8
I228656
sg9
I00
sg10
I-36666
sS'restricted_stock_log'
p501
g17
sg12
g6
sg14
g6
sg15
g17
sS'restricted_stock_deferred_log'
p502
g17
sS'salary_log'
p503
g17
sg19
g6
sS'director_fees_log'
p504
F10.50960517412297
sg21
g6
sg22
g6
sg23
g6
sg24
g6
sS'exercised_stock_options_log'
p505
g17
sg26
g17
sg27
I36666
sS'total_stock_value_log'
p506
g17
sg29
g6
sg30
g6
sg31
g6
sS'deferral_payments_log'
p507
g17
sS'other_log'
p508
g17
sg34
g6
sS'total_payments_log'
p509
F12.339973969721576
sg36
g6
sS'long_term_incentive_log'
p510
g17
sg38
g6
sg39
I228656
sg40
g6
sS'loan_advances_log'
p511
g17
sS'deferred_income_log'
p512
g17
ssS'BIBI PHILIPPE A'
p513
(dp514
S'expenses_log'
p515
F10.559944814778241
sg4
I1607
sg5
g6
sS'bonus_log'
p516
F13.815510557964274
sg8
I38559
sg9
I00
sg10
g6
sS'restricted_stock_log'
p517
F12.842866382292481
sg12
S'philippe.bibi@enron.com'
p518
sg14
I369721
sg15
F0.2
sS'restricted_stock_deferred_log'
p519
g17
sS'salary_log'
p520
F12.271977420417892
sg19
g6
sS'director_fees_log'
p521
g17
sg21
I1336
sg22
g6
sg23
I40
sg24
I425688
sS'exercised_stock_options_log'
p522
F14.197866698853527
sg26
F0.01431238332296204
sg27
g6
sS'total_stock_value_log'
p523
F14.427347895039754
sg29
I1000000
sg30
I1843816
sg31
I23
sS'deferral_payments_log'
p524
g17
sS'other_log'
p525
F12.961461962553532
sg34
I8
sS'total_payments_log'
p526
F14.532175514923269
sg36
I378082
sS'long_term_incentive_log'
p527
F12.820503946124596
sg38
I213625
sg39
I2047593
sg40
I1465734
sS'loan_advances_log'
p528
g17
sS'deferred_income_log'
p529
g17
ssS'RIEKER PAULA H'
p530
(dp531
S'expenses_log'
p532
F10.412441425669323
sg4
I1328
sg5
I214678
sS'bonus_log'
p533
F13.458835614025542
sg8
I33271
sg9
I01
sg10
I-100000
sS'restricted_stock_log'
p534
F12.555492837276967
sg12
S'paula.rieker@enron.com'
p535
sg14
g6
sg15
F0.5853658536585366
sS'restricted_stock_deferred_log'
p536
g17
sS'salary_log'
p537
F12.426015078728476
sg19
g6
sS'director_fees_log'
p538
g17
sg21
I1258
sg22
g6
sg23
I82
sg24
I1950
sS'exercised_stock_options_log'
p539
F14.30729891746906
sg26
F0.02635542168674699
sg27
g6
sS'total_stock_value_log'
p540
F14.467255888420205
sg29
I700000
sg30
I1918887
sg31
I35
sS'deferral_payments_log'
p541
F12.276894510055829
sS'other_log'
p542
F7.575584651557793
sg34
I48
sS'total_payments_log'
p543
F13.910002221056992
sg36
I283649
sS'long_term_incentive_log'
p544
g17
sg38
I249201
sg39
I1099100
sg40
I1635238
sS'loan_advances_log'
p545
g17
sS'deferred_income_log'
p546
g17
ssS'WHALEY DAVID A'
p547
(dp548
S'expenses_log'
p549
g17
sg4
g6
sg5
g6
sS'bonus_log'
p550
g17
sg8
g6
sg9
I00
sg10
g6
sS'restricted_stock_log'
p551
g17
sg12
g6
sg14
g6
sg15
g17
sS'restricted_stock_deferred_log'
p552
g17
sS'salary_log'
p553
g17
sg19
g6
sS'director_fees_log'
p554
g17
sg21
g6
sg22
g6
sg23
g6
sg24
g6
sS'exercised_stock_options_log'
p555
F11.500022579614704
sg26
g17
sg27
g6
sS'total_stock_value_log'
p556
F11.500022579614704
sg29
g6
sg30
I98718
sg31
g6
sS'deferral_payments_log'
p557
g17
sS'other_log'
p558
g17
sg34
g6
sS'total_payments_log'
p559
g17
sg36
g6
sS'long_term_incentive_log'
p560
g17
sg38
g6
sg39
g6
sg40
I98718
sS'loan_advances_log'
p561
g17
sS'deferred_income_log'
p562
g17
ssS'BECK SALLY W'
p563
(dp564
S'expenses_log'
p565
F10.52331106867723
sg4
I7315
sg5
g6
sS'bonus_log'
p566
F13.458835614025542
sg8
I37172
sg9
I00
sg10
g6
sS'restricted_stock_log'
p567
F11.744251448691996
sg12
S'sally.beck@enron.com'
p568
sg14
g6
sg15
F0.08887865530739121
sS'restricted_stock_deferred_log'
p569
g17
sS'salary_log'
p570
F12.351600541495117
sg19
g6
sS'director_fees_log'
p571
g17
sg21
I2639
sg22
g6
sg23
I4343
sg24
I566
sS'exercised_stock_options_log'
p572
g17
sg26
F0.01968557758031442
sg27
g6
sS'total_stock_value_log'
p573
F11.744251448691996
sg29
I700000
sg30
I126027
sg31
I144
sS'deferral_payments_log'
p574
g17
sS'other_log'
p575
F6.338594078203183
sg34
I386
sS'total_payments_log'
p576
F13.78409006384932
sg36
I126027
sS'long_term_incentive_log'
p577
g17
sg38
I231330
sg39
I969068
sg40
g6
sS'loan_advances_log'
p578
g17
sS'deferred_income_log'
p579
g17
ssS'HAUG DAVID L'
p580
(dp581
S'expenses_log'
p582
F6.163314804034641
sg4
I573
sg5
g6
sS'bonus_log'
p583
g17
sg8
I475
sg9
I00
sg10
g6
sS'restricted_stock_log'
p584
F14.611800346442024
sg12
S'david.haug@enron.com'
p585
sg14
g6
sg15
F0.3684210526315789
sS'restricted_stock_deferred_log'
p586
g17
sS'salary_log'
p587
g17
sg19
g6
sS'director_fees_log'
p588
g17
sg21
I471
sg22
g6
sg23
I19
sg24
g6
sS'exercised_stock_options_log'
p589
g17
sg26
F0.006980802792321117
sg27
g6
sS'total_stock_value_log'
p590
F14.611800346442024
sg29
g6
sg30
I2217299
sg31
I4
sS'deferral_payments_log'
p591
g17
sS'other_log'
p592
g17
sg34
I7
sS'total_payments_log'
p593
F6.163314804034641
sg36
I2217299
sS'long_term_incentive_log'
p594
g17
sg38
g6
sg39
I475
sg40
g6
sS'loan_advances_log'
p595
g17
sS'deferred_income_log'
p596
g17
ssS'ECHOLS JOHN B'
p597
(dp598
S'expenses_log'
p599
F9.97720259035841
sg4
g6
sg5
g6
sS'bonus_log'
p600
F12.206072645530174
sg8
I21530
sg9
I00
sg10
g6
sS'restricted_stock_log'
p601
F12.917803573599146
sg12
S'john.echols@enron.com'
p602
sg14
I2234774
sg15
g17
sS'restricted_stock_deferred_log'
p603
g17
sS'salary_log'
p604
F12.113107214652313
sg19
g6
sS'director_fees_log'
p605
g17
sg21
g6
sg22
g6
sg23
g6
sg24
I53775
sS'exercised_stock_options_log'
p606
F13.307078733439988
sg26
g17
sg27
g6
sS'total_stock_value_log'
p607
F13.824411823889719
sg29
I200000
sg30
I1008941
sg31
g6
sS'deferral_payments_log'
p608
g17
sS'other_log'
p609
F10.89256395413593
sg34
g6
sS'total_payments_log'
p610
F14.805915319116664
sg36
I407503
sS'long_term_incentive_log'
p611
F14.619650662348747
sg38
I182245
sg39
I2692324
sg40
I601438
sS'loan_advances_log'
p612
g17
sS'deferred_income_log'
p613
g17
ssS'MENDELSOHN JOHN'
p614
(dp615
S'expenses_log'
p616
F4.997212273764115
sg4
g6
sg5
g6
sS'bonus_log'
p617
g17
sg8
I148
sg9
I00
sg10
I-103750
sS'restricted_stock_log'
p618
g17
sg12
g6
sg14
g6
sg15
g17
sS'restricted_stock_deferred_log'
p619
g17
sS'salary_log'
p620
g17
sg19
g6
sS'director_fees_log'
p621
F11.549739438092944
sg21
g6
sg22
g6
sg23
g6
sg24
g6
sS'exercised_stock_options_log'
p622
g17
sg26
g17
sg27
I103750
sS'total_stock_value_log'
p623
g17
sg29
g6
sg30
g6
sg31
g6
sS'deferral_payments_log'
p624
g17
sS'other_log'
p625
g17
sg34
g6
sS'total_payments_log'
p626
F4.997212273764115
sg36
g6
sS'long_term_incentive_log'
p627
g17
sg38
g6
sg39
I148
sg40
g6
sS'loan_advances_log'
p628
g17
sS'deferred_income_log'
p629
g17
ssS'HICKERSON GARY J'
p630
(dp631
S'expenses_log'
p632
F11.501348712209706
sg4
I1320
sg5
g6
sS'bonus_log'
p633
F14.346138809026444
sg8
I98849
sg9
I00
sg10
g6
sS'restricted_stock_log'
p634
F12.99701781781342
sg12
S'gary.hickerson@enron.com'
p635
sg14
I69223
sg15
F0.037037037037037035
sS'restricted_stock_deferred_log'
p636
g17
sS'salary_log'
p637
F12.263341053320566
sg19
g6
sS'director_fees_log'
p638
g17
sg21
I900
sg22
g6
sg23
I27
sg24
I1936
sS'exercised_stock_options_log'
p639
g17
sg26
F0.030303030303030304
sg27
g6
sS'total_stock_value_log'
p640
F12.99701781781342
sg29
I1700000
sg30
I441096
sg31
I40
sS'deferral_payments_log'
p641
g17
sS'other_log'
p642
F7.568379267836522
sg34
I1
sS'total_payments_log'
p643
F14.548741540647498
sg36
I441096
sS'long_term_incentive_log'
p644
F11.145088456325304
sg38
I211788
sg39
I2081796
sg40
g6
sS'loan_advances_log'
p645
g17
sS'deferred_income_log'
p646
g17
ssS'CLINE KENNETH W'
p647
(dp648
S'expenses_log'
p649
g17
sg4
g6
sg5
g6
sS'bonus_log'
p650
g17
sg8
g6
sg9
I00
sg10
g6
sS'restricted_stock_log'
p651
F13.403150735847213
sg12
g6
sg14
g6
sg15
g17
sS'restricted_stock_deferred_log'
p652
g17
sS'salary_log'
p653
g17
sg19
I-472568
sS'director_fees_log'
p654
g17
sg21
g6
sg22
g6
sg23
g6
sg24
g6
sS'exercised_stock_options_log'
p655
g17
sg26
g17
sg27
g6
sS'total_stock_value_log'
p656
F12.152239285801045
sg29
g6
sg30
I189518
sg31
g6
sS'deferral_payments_log'
p657
g17
sS'other_log'
p658
g17
sg34
g6
sS'total_payments_log'
p659
g17
sg36
I662086
sS'long_term_incentive_log'
p660
g17
sg38
g6
sg39
g6
sg40
g6
sS'loan_advances_log'
p661
g17
sS'deferred_income_log'
p662
g17
ssS'LEWIS RICHARD'
p663
(dp664
S'expenses_log'
p665
g17
sg4
I952
sg5
g6
sS'bonus_log'
p666
g17
sg8
g6
sg9
I00
sg10
g6
sS'restricted_stock_log'
p667
g17
sg12
S'richard.lewis@enron.com'
p668
sg14
g6
sg15
F0.0
sS'restricted_stock_deferred_log'
p669
g17
sS'salary_log'
p670
g17
sg19
g6
sS'director_fees_log'
p671
g17
sg21
I739
sg22
g6
sg23
I26
sg24
g6
sS'exercised_stock_options_log'
p672
F13.653552647536456
sg26
F0.01050420168067227
sg27
g6
sS'total_stock_value_log'
p673
F13.653552647536456
sg29
g6
sg30
I850477
sg31
I10
sS'deferral_payments_log'
p674
g17
sS'other_log'
p675
g17
sg34
I0
sS'total_payments_log'
p676
g17
sg36
g6
sS'long_term_incentive_log'
p677
g17
sg38
g6
sg39
g6
sg40
I850477
sS'loan_advances_log'
p678
g17
sS'deferred_income_log'
p679
g17
ssS'HAYES ROBERT E'
p680
(dp681
S'expenses_log'
p682
g17
sg4
I504
sg5
I7961
sS'bonus_log'
p683
g17
sg8
g6
sg9
I00
sg10
g6
sS'restricted_stock_log'
p684
F11.927799503275258
sg12
S'robert.hayes@enron.com'
p685
sg14
g6
sg15
F0.0
sS'restricted_stock_deferred_log'
p686
g17
sS'salary_log'
p687
g17
sg19
g6
sS'director_fees_log'
p688
g17
sg21
I50
sg22
g6
sg23
I12
sg24
g6
sS'exercised_stock_options_log'
p689
g17
sg26
F0.031746031746031744
sg27
g6
sS'total_stock_value_log'
p690
F11.927799503275258
sg29
g6
sg30
I151418
sg31
I16
sS'deferral_payments_log'
p691
F8.982309899088579
sS'other_log'
p692
g17
sg34
I0
sS'total_payments_log'
p693
F8.982309899088579
sg36
I151418
sS'long_term_incentive_log'
p694
g17
sg38
g6
sg39
I7961
sg40
g6
sS'loan_advances_log'
p695
g17
sS'deferred_income_log'
p696
g17
ssS'MCCARTY DANNY J'
p697
(dp698
S'expenses_log'
p699
g17
sg4
I1433
sg5
g6
sS'bonus_log'
p700
g17
sg8
g6
sg9
I00
sg10
g6
sS'restricted_stock_log'
p701
F11.456947530560772
sg12
S'danny.mccarty@enron.com'
p702
sg14
g6
sg15
F0.009302325581395349
sS'restricted_stock_deferred_log'
p703
g17
sS'salary_log'
p704
g17
sg19
g6
sS'director_fees_log'
p705
g17
sg21
I508
sg22
g6
sg23
I215
sg24
g6
sS'exercised_stock_options_log'
p706
F13.40660202807835
sg26
F0.017445917655268667
sg27
g6
sS'total_stock_value_log'
p707
F13.539666143154376
sg29
g6
sg30
I758931
sg31
I25
sS'deferral_payments_log'
p708
g17
sS'other_log'
p709
g17
sg34
I2
sS'total_payments_log'
p710
g17
sg36
I94556
sS'long_term_incentive_log'
p711
g17
sg38
g6
sg39
g6
sg40
I664375
sS'loan_advances_log'
p712
g17
sS'deferred_income_log'
p713
g17
ssS'KOPPER MICHAEL J'
p714
(dp715
S'expenses_log'
p716
F11.679574852369887
sg4
g6
sg5
g6
sS'bonus_log'
p717
F13.592367006650065
sg8
I118134
sg9
I01
sg10
g6
sS'restricted_stock_log'
p718
F13.80042940693617
sg12
S'michael.kopper@enron.com'
p719
sg14
I602671
sg15
g17
sS'restricted_stock_deferred_log'
p720
g17
sS'salary_log'
p721
F12.320762011833631
sg19
g6
sS'director_fees_log'
p722
g17
sg21
g6
sg22
g6
sg23
g6
sg24
I907502
sS'exercised_stock_options_log'
p723
g17
sg26
g17
sg27
g6
sS'total_stock_value_log'
p724
F13.80042940693617
sg29
I800000
sg30
I985032
sg31
g6
sS'deferral_payments_log'
p725
g17
sS'other_log'
p726
F13.718451048975464
sg34
g6
sS'total_payments_log'
p727
F14.791055372895537
sg36
I985032
sS'long_term_incentive_log'
p728
F13.309126721505786
sg38
I224305
sg39
I2652612
sg40
g6
sS'loan_advances_log'
p729
g17
sS'deferred_income_log'
p730
g17
ssS'LEFF DANIEL P'
p731
(dp732
S'expenses_log'
p733
g17
sg4
I2822
sg5
g6
sS'bonus_log'
p734
F13.815510557964274
sg8
g6
sg9
I00
sg10
g6
sS'restricted_stock_log'
p735
F12.795324902593903
sg12
S'dan.leff@enron.com'
p736
sg14
I1387399
sg15
F0.2222222222222222
sS'restricted_stock_deferred_log'
p737
g17
sS'salary_log'
p738
F12.519955948133948
sg19
g6
sS'director_fees_log'
p739
g17
sg21
I2672
sg22
g6
sg23
I63
sg24
I3083
sS'exercised_stock_options_log'
p740
g17
sg26
F0.02374202693125443
sg27
g6
sS'total_stock_value_log'
p741
F12.795324902593903
sg29
I1000000
sg30
I360528
sg31
I67
sS'deferral_payments_log'
p742
g17
sS'other_log'
p743
F8.03365842788615
sg34
I14
sS'total_payments_log'
p744
F14.795424892565766
sg36
I360528
sS'long_term_incentive_log'
p745
F14.14294132916041
sg38
I273746
sg39
I2664228
sg40
g6
sS'loan_advances_log'
p746
g17
sS'deferred_income_log'
p747
g17
ssS'LAVORATO JOHN J'
p748
(dp749
S'expenses_log'
p750
F10.810475144084139
sg4
I7259
sg5
g6
sS'bonus_log'
p751
F15.89495209964411
sg8
I49537
sg9
I00
sg10
g6
sS'restricted_stock_log'
p752
F13.823626534149843
sg12
S'john.lavorato@enron.com'
p753
sg14
I2035380
sg15
F0.15899419729206962
sS'restricted_stock_deferred_log'
p754
g17
sS'salary_log'
p755
F12.734604583214978
sg19
g6
sS'director_fees_log'
p756
g17
sg21
I3962
sg22
g6
sg23
I2585
sg24
I1552
sS'exercised_stock_options_log'
p757
F15.240784016512256
sg26
F0.07273729163796666
sg27
g6
sS'total_stock_value_log'
p758
F15.457830676050715
sg29
I8000000
sg30
I5167144
sg31
I528
sS'deferral_payments_log'
p759
g17
sS'other_log'
p760
F7.347299700743164
sg34
I411
sS'total_payments_log'
p761
F16.15978993692175
sg36
I1008149
sS'long_term_incentive_log'
p762
F14.52619309161328
sg38
I339288
sg39
I10425757
sg40
I4158995
sS'loan_advances_log'
p763
g17
sS'deferred_income_log'
p764
g17
ssS'BERBERIAN DAVID'
p765
(dp766
S'expenses_log'
p767
F9.383621184117988
sg4
g6
sg5
g6
sS'bonus_log'
p768
g17
sg8
I11892
sg9
I00
sg10
g6
sS'restricted_stock_log'
p769
F13.675351536763753
sg12
S'david.berberian@enron.com'
p770
sg14
g6
sg15
g17
sS'restricted_stock_deferred_log'
p771
g17
sS'salary_log'
p772
F12.28572450760275
sg19
g6
sS'director_fees_log'
p773
g17
sg21
g6
sg22
g6
sg23
g6
sg24
g6
sS'exercised_stock_options_log'
p774
F14.300646612343575
sg26
g17
sg27
g6
sS'total_stock_value_log'
p775
F14.72924442384073
sg29
g6
sg30
I2493616
sg31
g6
sS'deferral_payments_log'
p776
g17
sS'other_log'
p777
g17
sg34
g6
sS'total_payments_log'
p778
F12.339177697284342
sg36
I869220
sS'long_term_incentive_log'
p779
g17
sg38
I216582
sg39
I228474
sg40
I1624396
sS'loan_advances_log'
p780
g17
sS'deferred_income_log'
p781
g17
ssS'DETMERING TIMOTHY J'
p782
(dp783
S'expenses_log'
p784
F10.863890859028604
sg4
g6
sg5
I875307
sS'bonus_log'
p785
F12.959844447906553
sg8
I52255
sg9
I00
sg10
I-775241
sS'restricted_stock_log'
p786
F12.660543767526416
sg12
S'timothy.detmering@enron.com'
p787
sg14
I415657
sg15
g17
sS'restricted_stock_deferred_log'
p788
g17
sS'salary_log'
p789
F12.257240932104573
sg19
I-315068
sS'director_fees_log'
p790
g17
sg21
g6
sg22
g6
sg23
g6
sg24
I1105
sS'exercised_stock_options_log'
p791
F14.522494073430122
sg26
g17
sg27
g6
sS'total_stock_value_log'
p792
F14.522494073430122
sg29
I425000
sg30
I2027865
sg31
g6
sS'deferral_payments_log'
p793
F13.682329960946634
sS'other_log'
p794
F7.007600613951853
sg34
g6
sS'total_payments_log'
p795
F14.001644006923687
sg36
I315068
sS'long_term_incentive_log'
p796
F12.93761567990969
sg38
I210500
sg39
I1204583
sg40
I2027865
sS'loan_advances_log'
p797
g17
sS'deferred_income_log'
p798
g17
ssS'WAKEHAM JOHN'
p799
(dp800
S'expenses_log'
p801
F11.549961100271057
sg4
g6
sg5
g6
sS'bonus_log'
p802
g17
sg8
I103773
sg9
I00
sg10
g6
sS'restricted_stock_log'
p803
g17
sg12
g6
sg14
g6
sg15
g17
sS'restricted_stock_deferred_log'
p804
g17
sS'salary_log'
p805
g17
sg19
g6
sS'director_fees_log'
p806
F11.60183337573555
sg21
g6
sg22
g6
sg23
g6
sg24
g6
sS'exercised_stock_options_log'
p807
g17
sg26
g17
sg27
I109298
sS'total_stock_value_log'
p808
g17
sg29
g6
sg30
g6
sg31
g6
sS'deferral_payments_log'
p809
g17
sS'other_log'
p810
g17
sg34
g6
sS'total_payments_log'
p811
F12.269380722481683
sg36
g6
sS'long_term_incentive_log'
p812
g17
sg38
g6
sg39
I213071
sg40
g6
sS'loan_advances_log'
p813
g17
sS'deferred_income_log'
p814
g17
ssS'POWERS WILLIAM'
p815
(dp816
S'expenses_log'
p817
g17
sg4
I653
sg5
g6
sS'bonus_log'
p818
g17
sg8
g6
sg9
I00
sg10
I-17500
sS'restricted_stock_log'
p819
g17
sg12
S'ken.powers@enron.com'
p820
sg14
g6
sg15
F0.0
sS'restricted_stock_deferred_log'
p821
g17
sS'salary_log'
p822
g17
sg19
g6
sS'director_fees_log'
p823
F9.769956159911606
sg21
I12
sg22
g6
sg23
I26
sg24
g6
sS'exercised_stock_options_log'
p824
g17
sg26
F0.0
sg27
I17500
sS'total_stock_value_log'
p825
g17
sg29
g6
sg30
g6
sg31
I0
sS'deferral_payments_log'
p826
g17
sS'other_log'
p827
g17
sg34
I0
sS'total_payments_log'
p828
g17
sg36
g6
sS'long_term_incentive_log'
p829
g17
sg38
g6
sg39
g6
sg40
g6
sS'loan_advances_log'
p830
g17
sS'deferred_income_log'
p831
g17
ssS'GOLD JOSEPH'
p832
(dp833
S'expenses_log'
p834
g17
sg4
g6
sg5
g6
sS'bonus_log'
p835
F13.527828485512494
sg8
g6
sg9
I00
sg10
g6
sS'restricted_stock_log'
p836
F12.99701781781342
sg12
S'joe.gold@enron.com'
p837
sg14
I304805
sg15
g17
sS'restricted_stock_deferred_log'
p838
g17
sS'salary_log'
p839
F12.516787417092527
sg19
g6
sS'director_fees_log'
p840
g17
sg21
g6
sg22
g6
sg23
g6
sg24
I819288
sS'exercised_stock_options_log'
p841
F12.986578017932525
sg26
g17
sg27
g6
sS'total_stock_value_log'
p842
F13.684958722048744
sg29
I750000
sg30
I877611
sg31
g6
sS'deferral_payments_log'
p843
g17
sS'other_log'
p844
F13.616190949373063
sg34
g6
sS'total_payments_log'
p845
F14.579569501094838
sg36
I441096
sS'long_term_incentive_log'
p846
F12.627427506859556
sg38
I272880
sg39
I2146973
sg40
I436515
sS'loan_advances_log'
p847
g17
sS'deferred_income_log'
p848
g17
ssS'BANNANTINE JAMES M'
p849
(dp850
S'expenses_log'
p851
F10.938467575959383
sg4
I566
sg5
g6
sS'bonus_log'
p852
g17
sg8
I56301
sg9
I00
sg10
I-5104
sS'restricted_stock_log'
p853
F14.379432489711474
sg12
S'james.bannantine@enron.com'
p854
sg14
g6
sg15
F0.0
sS'restricted_stock_deferred_log'
p855
g17
sS'salary_log'
p856
F6.1675164908883415
sg19
I-560222
sS'director_fees_log'
p857
g17
sg21
I465
sg22
g6
sg23
I29
sg24
I864523
sS'exercised_stock_options_log'
p858
F15.213278099713778
sg26
F0.06890459363957598
sg27
g6
sS'total_stock_value_log'
p859
F15.472497292993488
sg29
g6
sg30
I5243487
sg31
I39
sS'deferral_payments_log'
p860
g17
sS'other_log'
p861
F13.66993318872555
sg34
I0
sS'total_payments_log'
p862
F13.72798668603518
sg36
I1757552
sS'long_term_incentive_log'
p863
g17
sg38
I477
sg39
I916197
sg40
I4046157
sS'loan_advances_log'
p864
g17
sS'deferred_income_log'
p865
g17
ssS'DUNCAN JOHN H'
p866
(dp867
S'expenses_log'
p868
g17
sg4
g6
sg5
g6
sS'bonus_log'
p869
g17
sg8
g6
sg9
I00
sg10
I-25000
sS'restricted_stock_log'
p870
g17
sg12
g6
sg14
g6
sg15
g17
sS'restricted_stock_deferred_log'
p871
g17
sS'salary_log'
p872
g17
sg19
g6
sS'director_fees_log'
p873
F11.537540025734147
sg21
g6
sg22
g6
sg23
g6
sg24
g6
sS'exercised_stock_options_log'
p874
F12.825976864322401
sg26
g17
sg27
I102492
sS'total_stock_value_log'
p875
F12.825976864322401
sg29
g6
sg30
I371750
sg31
g6
sS'deferral_payments_log'
p876
g17
sS'other_log'
p877
g17
sg34
g6
sS'total_payments_log'
p878
F11.257929984206836
sg36
g6
sS'long_term_incentive_log'
p879
g17
sg38
g6
sg39
I77492
sg40
I371750
sS'loan_advances_log'
p880
g17
sS'deferred_income_log'
p881
g17
ssS'SHAPIRO RICHARD S'
p882
(dp883
S'expenses_log'
p884
F11.833319131378751
sg4
I15149
sg5
g6
sS'bonus_log'
p885
F13.38472764187182
sg8
I137767
sg9
I00
sg10
g6
sS'restricted_stock_log'
p886
F12.845724108147369
sg12
S'richard.shapiro@enron.com'
p887
sg14
g6
sg15
F0.053497942386831275
sS'restricted_stock_deferred_log'
p888
g17
sS'salary_log'
p889
F12.50274914656153
sg19
g6
sS'director_fees_log'
p890
g17
sg21
I4527
sg22
g6
sg23
I1215
sg24
I705
sS'exercised_stock_options_log'
p891
F13.317662032899928
sg26
F0.0048848108786058485
sg27
g6
sS'total_stock_value_log'
p892
F13.80242633158633
sg29
I650000
sg30
I987001
sg31
I74
sS'deferral_payments_log'
p893
g17
sS'other_log'
p894
F6.558197802812269
sg34
I65
sS'total_payments_log'
p895
F13.871463578943393
sg36
I379164
sS'long_term_incentive_log'
p896
g17
sg38
I269076
sg39
I1057548
sg40
I607837
sS'loan_advances_log'
p897
g17
sS'deferred_income_log'
p898
g17
ssS'SHERRIFF JOHN R'
p899
(dp900
S'expenses_log'
p901
g17
sg4
I3187
sg5
g6
sS'bonus_log'
p902
F14.22097566607244
sg8
g6
sg9
I00
sg10
g6
sS'restricted_stock_log'
p903
F14.072803523567023
sg12
S'john.sherriff@enron.com'
p904
sg14
I554422
sg15
F0.25
sS'restricted_stock_deferred_log'
p905
g17
sS'salary_log'
p906
F12.968699245859922
sg19
g6
sS'director_fees_log'
p907
g17
sg21
I2103
sg22
g6
sg23
I92
sg24
I1852186
sS'exercised_stock_options_log'
p908
F14.422859080439128
sg26
F0.008785691873235017
sg27
g6
sS'total_stock_value_log'
p909
F14.956218269997848
sg29
I1500000
sg30
I3128982
sg31
I28
sS'deferral_payments_log'
p910
g17
sS'other_log'
p911
F14.431877121110752
sg34
I23
sS'total_payments_log'
p912
F15.282321668228441
sg36
I1293424
sS'long_term_incentive_log'
p913
F13.225681408610182
sg38
I428780
sg39
I4335388
sg40
I1835558
sS'loan_advances_log'
p914
g17
sS'deferred_income_log'
p915
g17
ssS'SHELBY REX'
p916
(dp917
S'expenses_log'
p918
F10.03819325538842
sg4
I225
sg5
g6
sS'bonus_log'
p919
F12.206072645530174
sg8
I22884
sg9
I01
sg10
I-4167
sS'restricted_stock_log'
p920
F13.675351536763753
sg12
S'rex.shelby@enron.com'
p921
sg14
g6
sg15
F0.358974358974359
sS'restricted_stock_deferred_log'
p922
g17
sS'salary_log'
p923
F12.263605433727742
sg19
g6
sS'director_fees_log'
p924
g17
sg21
I91
sg22
g6
sg23
I39
sg24
I1573324
sS'exercised_stock_options_log'
p925
F14.300646612343575
sg26
F0.057777777777777775
sg27
g6
sS'total_stock_value_log'
p926
F14.72924442384073
sg29
I200000
sg30
I2493616
sg31
I13
sS'deferral_payments_log'
p927
g17
sS'other_log'
p928
F14.268701136672643
sg34
I14
sS'total_payments_log'
p929
F14.510598354310757
sg36
I869220
sS'long_term_incentive_log'
p930
g17
sg38
I211844
sg39
I2003885
sg40
I1624396
sS'loan_advances_log'
p931
g17
sS'deferred_income_log'
p932
g17
ssS'LEMAISTRE CHARLES'
p933
(dp934
S'expenses_log'
p935
g17
sg4
g6
sg5
g6
sS'bonus_log'
p936
g17
sg8
g6
sg9
I00
sg10
I-25000
sS'restricted_stock_log'
p937
g17
sg12
g6
sg14
g6
sg15
g17
sS'restricted_stock_deferred_log'
p938
g17
sS'salary_log'
p939
g17
sg19
g6
sS'director_fees_log'
p940
F11.630637386986987
sg21
g6
sg22
g6
sg23
g6
sg24
g6
sS'exercised_stock_options_log'
p941
F12.9309074287884
sg26
g17
sg27
I112492
sS'total_stock_value_log'
p942
F12.9309074287884
sg29
g6
sg30
I412878
sg31
g6
sS'deferral_payments_log'
p943
g17
sS'other_log'
p944
g17
sg34
g6
sS'total_payments_log'
p945
F11.37930263959443
sg36
g6
sS'long_term_incentive_log'
p946
g17
sg38
g6
sg39
I87492
sg40
I412878
sS'loan_advances_log'
p947
g17
sS'deferred_income_log'
p948
g17
ssS'DEFFNER JOSEPH M'
p949
(dp950
S'expenses_log'
p951
F10.636480251018197
sg4
I714
sg5
g6
sS'bonus_log'
p952
F13.304684934198283
sg8
I41626
sg9
I00
sg10
g6
sS'restricted_stock_log'
p953
F11.862405588148432
sg12
S'joseph.deffner@enron.com'
p954
sg14
I335349
sg15
F0.05405405405405406
sS'restricted_stock_deferred_log'
p955
g17
sS'salary_log'
p956
F12.236218653973182
sg19
g6
sS'director_fees_log'
p957
g17
sg21
I552
sg22
g6
sg23
I74
sg24
I25553
sS'exercised_stock_options_log'
p958
F9.762960317399152
sg26
F0.16106442577030813
sg27
g6
sS'total_stock_value_log'
p959
F11.977985645482825
sg29
I600000
sg30
I159211
sg31
I115
sS'deferral_payments_log'
p960
g17
sS'other_log'
p961
F10.14851000556878
sg34
I4
sS'total_payments_log'
p962
F14.005013764864525
sg36
I141833
sS'long_term_incentive_log'
p963
F12.72292705956429
sg38
I206121
sg39
I1208649
sg40
I17378
sS'loan_advances_log'
p964
g17
sS'deferred_income_log'
p965
g17
ssS'KISHKILL JOSEPH G'
p966
(dp967
S'expenses_log'
p968
F11.664229239061394
sg4
g6
sg5
g6
sS'bonus_log'
p969
g17
sg8
I116335
sg9
I00
sg10
I-51042
sS'restricted_stock_log'
p970
F13.849279900900765
sg12
S'joe.kishkill@enron.com'
p971
sg14
g6
sg15
g17
sS'restricted_stock_deferred_log'
p972
g17
sS'salary_log'
p973
F12.068223372835615
sg19
g6
sS'director_fees_log'
p974
g17
sg21
g6
sg22
g6
sg23
g6
sg24
I465357
sS'exercised_stock_options_log'
p975
g17
sg26
g17
sg27
g6
sS'total_stock_value_log'
p976
F13.849279900900765
sg29
g6
sg30
I1034346
sg31
g6
sS'deferral_payments_log'
p977
g17
sS'other_log'
p978
F13.050560131941893
sg34
g6
sS'total_payments_log'
p979
F13.465805553182099
sg36
I1034346
sS'long_term_incentive_log'
p980
g17
sg38
I174246
sg39
I704896
sg40
g6
sS'loan_advances_log'
p981
g17
sS'deferred_income_log'
p982
g17
ssS'WHALLEY LAWRENCE G'
p983
(dp984
S'expenses_log'
p985
F10.965401278088198
sg4
I6019
sg5
g6
sS'bonus_log'
p986
F14.914122846632385
sg8
I57838
sg9
I00
sg10
g6
sS'restricted_stock_log'
p987
F14.843763685053208
sg12
S'greg.whalley@enron.com'
p988
sg14
I808346
sg15
F0.04316546762589928
sS'restricted_stock_deferred_log'
p989
g17
sS'salary_log'
p990
F13.142879475609794
sg19
g6
sS'director_fees_log'
p991
g17
sg21
I3920
sg22
g6
sg23
I556
sg24
I301026
sS'exercised_stock_options_log'
p992
F15.004256012431435
sg26
F0.03090214321315833
sg27
g6
sS'total_stock_value_log'
p993
F15.62037330307833
sg29
I3000000
sg30
I6079137
sg31
I186
sS'deferral_payments_log'
p994
g17
sS'other_log'
p995
F12.614951918738125
sg34
I24
sS'total_payments_log'
p996
F15.358290157422129
sg36
I2796177
sS'long_term_incentive_log'
p997
F13.60274546366593
sg38
I510364
sg39
I4677574
sg40
I3282960
sS'loan_advances_log'
p998
g17
sS'deferred_income_log'
p999
g17
ssS'MCCONNELL MICHAEL S'
p1000
(dp1001
S'expenses_log'
p1002
F11.306688193722378
sg4
I3329
sg5
g6
sS'bonus_log'
p1003
F13.9108207377686
sg8
I81364
sg9
I00
sg10
g6
sS'restricted_stock_log'
p1004
F14.206382366636161
sg12
S'mike.mcconnell@enron.com'
p1005
sg14
I554422
sg15
F0.07075127644055434
sS'restricted_stock_deferred_log'
p1006
g17
sS'salary_log'
p1007
F12.807756736734643
sg19
g6
sS'director_fees_log'
p1008
g17
sg21
I2189
sg22
g6
sg23
I2742
sg24
I540
sS'exercised_stock_options_log'
p1009
F14.299793007907198
sg26
F0.02763592670471613
sg27
g6
sS'total_stock_value_log'
p1010
F14.947325165012545
sg29
I1100000
sg30
I3101279
sg31
I92
sS'deferral_payments_log'
p1011
g17
sS'other_log'
p1012
F6.29156913955832
sg34
I194
sS'total_payments_log'
p1013
F14.558097215653882
sg36
I1478269
sS'long_term_incentive_log'
p1014
F13.225681408610182
sg38
I365038
sg39
I2101364
sg40
I1623010
sS'loan_advances_log'
p1015
g17
sS'deferred_income_log'
p1016
g17
ssS'PIRO JIM'
p1017
(dp1018
S'expenses_log'
p1019
g17
sg4
I58
sg5
g6
sS'bonus_log'
p1020
g17
sg8
g6
sg9
I00
sg10
g6
sS'restricted_stock_log'
p1021
F10.764350137500665
sg12
S'jim.piro@enron.com'
p1022
sg14
g6
sg15
F0.0625
sS'restricted_stock_deferred_log'
p1023
g17
sS'salary_log'
p1024
g17
sg19
g6
sS'director_fees_log'
p1025
g17
sg21
I3
sg22
g6
sg23
I16
sg24
g6
sS'exercised_stock_options_log'
p1026
g17
sg26
F0.0
sg27
g6
sS'total_stock_value_log'
p1027
F10.764350137500665
sg29
g6
sg30
I47304
sg31
I0
sS'deferral_payments_log'
p1028
g17
sS'other_log'
p1029
g17
sg34
I1
sS'total_payments_log'
p1030
g17
sg36
I47304
sS'long_term_incentive_log'
p1031
g17
sg38
g6
sg39
g6
sg40
g6
sS'loan_advances_log'
p1032
g17
sS'deferred_income_log'
p1033
g17
ssS'DELAINEY DAVID W'
p1034
(dp1035
S'expenses_log'
p1036
F11.364123787024146
sg4
I3093
sg5
g6
sS'bonus_log'
p1037
F14.914122846632385
sg8
I86174
sg9
I01
sg10
g6
sS'restricted_stock_log'
p1038
F14.09552430380946
sg12
S'david.delainey@enron.com'
p1039
sg14
I1294981
sg15
F0.198435972629521
sS'restricted_stock_deferred_log'
p1040
g17
sS'salary_log'
p1041
F12.808099108222002
sg19
g6
sS'director_fees_log'
p1042
g17
sg21
I2097
sg22
g6
sg23
I3069
sg24
I1661
sS'exercised_stock_options_log'
p1043
F14.644548283658818
sg26
F0.02133850630455868
sg27
g6
sS'total_stock_value_log'
p1044
F15.100397966674393
sg29
I3000000
sg30
I3614261
sg31
I66
sS'deferral_payments_log'
p1045
g17
sS'other_log'
p1046
F7.415175109613295
sg34
I609
sS'total_payments_log'
p1047
F15.373229611787004
sg36
I1323148
sS'long_term_incentive_log'
p1048
F14.074006581193471
sg38
I365163
sg39
I4747979
sg40
I2291113
sS'loan_advances_log'
p1049
g17
sS'deferred_income_log'
p1050
g17
ssS'SULLIVAN-SHAKLOVITZ COLLEEN'
p1051
(dp1052
S'expenses_log'
p1053
g17
sg4
g6
sg5
I181993
sS'bonus_log'
p1054
F11.512925464970229
sg8
g6
sg9
I00
sg10
g6
sS'restricted_stock_log'
p1055
g17
sg12
g6
sg14
I554422
sg15
g17
sS'restricted_stock_deferred_log'
p1056
g17
sS'salary_log'
p1057
F12.00014873160132
sg19
g6
sS'director_fees_log'
p1058
g17
sg21
g6
sg22
g6
sg23
g6
sg24
I162
sS'exercised_stock_options_log'
p1059
F14.124740058191612
sg26
g17
sg27
g6
sS'total_stock_value_log'
p1060
F14.124740058191612
sg29
I100000
sg30
I1362375
sg31
g6
sS'deferral_payments_log'
p1061
F12.111723503780807
sS'other_log'
p1062
F5.087596335232384
sg34
g6
sS'total_payments_log'
p1063
F13.8148663505072
sg36
g6
sS'long_term_incentive_log'
p1064
F13.225681408610182
sg38
I162779
sg39
I999356
sg40
I1362375
sS'loan_advances_log'
p1065
g17
sS'deferred_income_log'
p1066
g17
ssS'WROBEL BRUCE'
p1067
(dp1068
S'expenses_log'
p1069
g17
sg4
g6
sg5
g6
sS'bonus_log'
p1070
g17
sg8
g6
sg9
I00
sg10
g6
sS'restricted_stock_log'
p1071
g17
sg12
g6
sg14
g6
sg15
g17
sS'restricted_stock_deferred_log'
p1072
g17
sS'salary_log'
p1073
g17
sg19
g6
sS'director_fees_log'
p1074
g17
sg21
g6
sg22
g6
sg23
g6
sg24
g6
sS'exercised_stock_options_log'
p1075
F11.843164026835922
sg26
g17
sg27
g6
sS'total_stock_value_log'
p1076
F11.843164026835922
sg29
g6
sg30
I139130
sg31
g6
sS'deferral_payments_log'
p1077
g17
sS'other_log'
p1078
g17
sg34
g6
sS'total_payments_log'
p1079
g17
sg36
g6
sS'long_term_incentive_log'
p1080
g17
sg38
g6
sg39
g6
sg40
I139130
sS'loan_advances_log'
p1081
g17
sS'deferred_income_log'
p1082
g17
ssS'LINDHOLM TOD A'
p1083
(dp1084
S'expenses_log'
p1085
F10.96348028065585
sg4
g6
sg5
I204075
sS'bonus_log'
p1086
F12.206072645530174
sg8
I57727
sg9
I00
sg10
g6
sS'restricted_stock_log'
p1087
F13.151625048128034
sg12
S'tod.lindholm@enron.com'
p1088
sg14
I175000
sg15
g17
sS'restricted_stock_deferred_log'
p1089
g17
sS'salary_log'
p1090
F12.373521652201378
sg19
g6
sS'director_fees_log'
p1091
g17
sg21
g6
sg22
g6
sg23
g6
sg24
I2630
sS'exercised_stock_options_log'
p1092
F14.751353297496836
sg26
g17
sg27
g6
sS'total_stock_value_log'
p1093
F14.935299692656022
sg29
I200000
sg30
I3064208
sg31
g6
sS'deferral_payments_log'
p1094
F12.226242852319556
sS'other_log'
p1095
F7.874739125171811
sg34
g6
sS'total_payments_log'
p1096
F13.682994649561076
sg36
I514847
sS'long_term_incentive_log'
p1097
F12.072541252905651
sg38
I236457
sg39
I875889
sg40
I2549361
sS'loan_advances_log'
p1098
g17
sS'deferred_income_log'
p1099
g17
ssS'MEYER JEROME J'
p1100
(dp1101
S'expenses_log'
p1102
F7.67368812926773
sg4
g6
sg5
g6
sS'bonus_log'
p1103
g17
sg8
I2151
sg9
I00
sg10
I-38346
sS'restricted_stock_log'
p1104
g17
sg12
g6
sg14
g6
sg15
g17
sS'restricted_stock_deferred_log'
p1105
g17
sS'salary_log'
p1106
g17
sg19
g6
sS'director_fees_log'
p1107
F10.554405498878337
sg21
g6
sg22
g6
sg23
g6
sg24
g6
sS'exercised_stock_options_log'
p1108
g17
sg26
g17
sg27
I38346
sS'total_stock_value_log'
p1109
g17
sg29
g6
sg30
g6
sg31
g6
sS'deferral_payments_log'
p1110
g17
sS'other_log'
p1111
g17
sg34
g6
sS'total_payments_log'
p1112
F7.67368812926773
sg36
g6
sS'long_term_incentive_log'
p1113
g17
sg38
g6
sg39
I2151
sg40
g6
sS'loan_advances_log'
p1114
g17
sS'deferred_income_log'
p1115
g17
ssS'LAY KENNETH L'
p1116
(dp1117
S'expenses_log'
p1118
F11.51124405218769
sg4
I4273
sg5
I202911
sS'bonus_log'
p1119
F15.761420707019587
sg8
I99832
sg9
I01
sg10
I-300000
sS'restricted_stock_log'
p1120
F16.507546140198766
sg12
S'kenneth.lay@enron.com'
p1121
sg14
I3600000
sg15
F0.4444444444444444
sS'restricted_stock_deferred_log'
p1122
g17
sS'salary_log'
p1123
F13.885336016088093
sg19
g6
sS'director_fees_log'
p1124
g17
sg21
I2411
sg22
I81525000
sg23
I36
sg24
I10359729
sS'exercised_stock_options_log'
p1125
F17.35206553040225
sg26
F0.028785396676807865
sg27
g6
sS'total_stock_value_log'
p1126
F17.709574826285394
sg29
I7000000
sg30
I49110078
sg31
I123
sS'deferral_payments_log'
p1127
F12.220522738242858
sS'other_log'
p1128
F16.153436636152318
sg34
I16
sS'total_payments_log'
p1129
F18.455659714004362
sg36
I14761694
sS'long_term_incentive_log'
p1130
F15.096444403426338
sg38
I1072321
sg39
I103559793
sg40
I34348384
sS'loan_advances_log'
p1131
F18.216420279639657
sS'deferred_income_log'
p1132
g17
ssS'BUTTS ROBERT H'
p1133
(dp1134
S'expenses_log'
p1135
F9.149528232579426
sg4
g6
sg5
g6
sS'bonus_log'
p1136
F13.527828485512494
sg8
I9410
sg9
I00
sg10
I-75000
sS'restricted_stock_log'
p1137
F12.942324812599852
sg12
S'bob.butts@enron.com'
p1138
sg14
I175000
sg15
g17
sS'restricted_stock_deferred_log'
p1139
g17
sS'salary_log'
p1140
F12.474250746083811
sg19
g6
sS'director_fees_log'
p1141
g17
sg21
g6
sg22
g6
sg23
g6
sg24
I150656
sS'exercised_stock_options_log'
p1142
g17
sg26
g17
sg27
g6
sS'total_stock_value_log'
p1143
F12.942324812599852
sg29
I750000
sg30
I417619
sg31
g6
sS'deferral_payments_log'
p1144
g17
sS'other_log'
p1145
F11.922754371179893
sg34
g6
sS'total_payments_log'
p1146
F14.055772352523817
sg36
I417619
sS'long_term_incentive_log'
p1147
F12.072541252905651
sg38
I261516
sg39
I1271582
sg40
g6
sS'loan_advances_log'
p1148
g17
sS'deferred_income_log'
p1149
g17
ssS'OLSON CINDY K'
p1150
(dp1151
S'expenses_log'
p1152
F11.06336739355144
sg4
I1184
sg5
I77716
sS'bonus_log'
p1153
F13.527828485512494
sg8
I63791
sg9
I00
sg10
g6
sS'restricted_stock_log'
p1154
F13.784771930002
sg12
S'cindy.olson@enron.com'
p1155
sg14
I100000
sg15
F0.28846153846153844
sS'restricted_stock_deferred_log'
p1156
g17
sS'salary_log'
p1157
F12.704050083714867
sg19
g6
sS'director_fees_log'
p1158
g17
sg21
I856
sg22
g6
sg23
I52
sg24
I972
sS'exercised_stock_options_log'
p1159
F14.308396625838256
sg26
F0.016891891891891893
sg27
g6
sS'total_stock_value_log'
p1160
F14.773619779692249
sg29
I750000
sg30
I2606763
sg31
I20
sS'deferral_payments_log'
p1161
F11.260816435363003
sS'other_log'
p1162
F6.879355804460439
sg34
I15
sS'total_payments_log'
p1163
F14.09432114489992
sg36
I969729
sS'long_term_incentive_log'
p1164
F11.512925464970229
sg38
I329078
sg39
I1321557
sg40
I1637034
sS'loan_advances_log'
p1165
g17
sS'deferred_income_log'
p1166
g17
ssS'MCDONALD REBECCA'
p1167
(dp1168
S'expenses_log'
p1169
g17
sg4
I894
sg5
g6
sS'bonus_log'
p1170
g17
sg8
g6
sg9
I00
sg10
g6
sS'restricted_stock_log'
p1171
F13.74730130793724
sg12
S'rebecca.mcdonald@enron.com'
p1172
sg14
g6
sg15
F0.07692307692307693
sS'restricted_stock_deferred_log'
p1173
g17
sS'salary_log'
p1174
g17
sg19
g6
sS'director_fees_log'
p1175
g17
sg21
I720
sg22
g6
sg23
I13
sg24
g6
sS'exercised_stock_options_log'
p1176
F13.537516075581697
sg26
F0.06040268456375839
sg27
g6
sS'total_stock_value_log'
p1177
F14.34104704443731
sg29
g6
sg30
I1691366
sg31
I54
sS'deferral_payments_log'
p1178
g17
sS'other_log'
p1179
g17
sg34
I1
sS'total_payments_log'
p1180
g17
sg36
I934065
sS'long_term_incentive_log'
p1181
g17
sg38
g6
sg39
g6
sg40
I757301
sS'loan_advances_log'
p1182
g17
sS'deferred_income_log'
p1183
g17
ssS'CUMBERLAND MICHAEL S'
p1184
(dp1185
S'expenses_log'
p1186
F10.014313107625012
sg4
g6
sg5
g6
sS'bonus_log'
p1187
F12.691580461311874
sg8
I22344
sg9
I00
sg10
g6
sS'restricted_stock_log'
p1188
F12.245004855531961
sg12
g6
sg14
I275000
sg15
g17
sS'restricted_stock_deferred_log'
p1189
g17
sS'salary_log'
p1190
F12.127565009031764
sg19
g6
sS'director_fees_log'
p1191
g17
sg21
g6
sg22
g6
sg23
g6
sg24
I713
sS'exercised_stock_options_log'
p1192
g17
sg26
g17
sg27
g6
sS'total_stock_value_log'
p1193
F12.245004855531961
sg29
I325000
sg30
I207940
sg31
g6
sS'deferral_payments_log'
p1194
g17
sS'other_log'
p1195
F6.569481420414296
sg34
g6
sS'total_payments_log'
p1196
F13.602262880574937
sg36
I207940
sS'long_term_incentive_log'
p1197
F12.524526376648708
sg38
I184899
sg39
I807956
sg40
g6
sS'loan_advances_log'
p1198
g17
sS'deferred_income_log'
p1199
g17
ssS'GAHN ROBERT S'
p1200
(dp1201
S'expenses_log'
p1202
F10.82137700577398
sg4
g6
sg5
I73122
sS'bonus_log'
p1203
F13.141911070246698
sg8
I50080
sg9
I00
sg10
I-1042
sS'restricted_stock_log'
p1204
F12.368914023036002
sg12
g6
sg14
g6
sg15
g17
sS'restricted_stock_deferred_log'
p1205
g17
sS'salary_log'
p1206
F12.165292316808554
sg19
g6
sS'director_fees_log'
p1207
g17
sg21
g6
sg22
g6
sg23
g6
sg24
I76547
sS'exercised_stock_options_log'
p1208
F11.329447239492891
sg26
g17
sg27
g6
sS'total_stock_value_log'
p1209
F12.67171364734039
sg29
I509870
sg30
I318607
sg31
g6
sS'deferral_payments_log'
p1210
F11.199884558051558
sS'other_log'
p1211
F11.245660210246031
sg34
g6
sS'total_payments_log'
p1212
F13.710799831147945
sg36
I235370
sS'long_term_incentive_log'
p1213
g17
sg38
I192008
sg39
I900585
sg40
I83237
sS'loan_advances_log'
p1214
g17
sS'deferred_income_log'
p1215
g17
ssS'MCCLELLAN GEORGE'
p1216
(dp1217
S'expenses_log'
p1218
F12.340441812124062
sg4
I1744
sg5
g6
sS'bonus_log'
p1219
F13.710150042306449
sg8
I228763
sg9
I00
sg10
I-125000
sS'restricted_stock_log'
p1220
F12.99701781781342
sg12
S'george.mcclellan@enron.com'
p1221
sg14
g6
sg15
F0.0
sS'restricted_stock_deferred_log'
p1222
g17
sS'salary_log'
p1223
F12.481478421667193
sg19
g6
sS'director_fees_log'
p1224
g17
sg21
I1469
sg22
g6
sg23
I49
sg24
I51587
sS'exercised_stock_options_log'
p1225
F13.135802664270836
sg26
F0.02981651376146789
sg27
g6
sS'total_stock_value_log'
p1226
F13.761963146014166
sg29
I900000
sg30
I947861
sg31
I52
sS'deferral_payments_log'
p1227
g17
sS'other_log'
p1228
F10.851024981743453
sg34
I0
sS'total_payments_log'
p1229
F14.09220473397783
sg36
I441096
sS'long_term_incentive_log'
p1230
g17
sg38
I263413
sg39
I1318763
sg40
I506765
sS'loan_advances_log'
p1231
g17
sS'deferred_income_log'
p1232
g17
ssS'HERMANN ROBERT J'
p1233
(dp1234
S'expenses_log'
p1235
F10.786366268065041
sg4
g6
sg5
g6
sS'bonus_log'
p1236
F13.458835614025542
sg8
I48357
sg9
I00
sg10
I-280000
sS'restricted_stock_log'
p1237
F13.082857183505297
sg12
S'robert.hermann@enron.com'
p1238
sg14
I150000
sg15
g17
sS'restricted_stock_deferred_log'
p1239
g17
sS'salary_log'
p1240
F12.47862712068361
sg19
g6
sS'director_fees_log'
p1241
g17
sg21
g6
sg22
g6
sg23
g6
sg24
I416441
sS'exercised_stock_options_log'
p1242
F12.141534124392603
sg26
g17
sg27
g6
sS'total_stock_value_log'
p1243
F13.412241037787947
sg29
I700000
sg30
I668132
sg31
g6
sS'deferral_payments_log'
p1244
g17
sS'other_log'
p1245
F12.939500073892116
sg34
g6
sS'total_payments_log'
p1246
F14.075919835766967
sg36
I480632
sS'long_term_incentive_log'
p1247
F11.918390573078392
sg38
I262663
sg39
I1297461
sg40
I187500
sS'loan_advances_log'
p1248
g17
sS'deferred_income_log'
p1249
g17
ssS'SCRIMSHAW MATTHEW'
p1250
(dp1251
S'expenses_log'
p1252
g17
sg4
g6
sg5
g6
sS'bonus_log'
p1253
g17
sg8
g6
sg9
I00
sg10
g6
sS'restricted_stock_log'
p1254
g17
sg12
S'matthew.scrimshaw@enron.com'
p1255
sg14
g6
sg15
g17
sS'restricted_stock_deferred_log'
p1256
g17
sS'salary_log'
p1257
g17
sg19
g6
sS'director_fees_log'
p1258
g17
sg21
g6
sg22
g6
sg23
g6
sg24
g6
sS'exercised_stock_options_log'
p1259
F13.54049064757649
sg26
g17
sg27
g6
sS'total_stock_value_log'
p1260
F13.54049064757649
sg29
g6
sg30
I759557
sg31
g6
sS'deferral_payments_log'
p1261
g17
sS'other_log'
p1262
g17
sg34
g6
sS'total_payments_log'
p1263
g17
sg36
g6
sS'long_term_incentive_log'
p1264
g17
sg38
g6
sg39
g6
sg40
I759557
sS'loan_advances_log'
p1265
g17
sS'deferred_income_log'
p1266
g17
ssS'GATHMANN WILLIAM D'
p1267
(dp1268
S'expenses_log'
p1269
g17
sg4
g6
sg5
g6
sS'bonus_log'
p1270
g17
sg8
g6
sg9
I00
sg10
g6
sS'restricted_stock_log'
p1271
F12.483753623340327
sg12
g6
sg14
g6
sg15
g17
sS'restricted_stock_deferred_log'
p1272
g17
sS'salary_log'
p1273
g17
sg19
I-72419
sS'director_fees_log'
p1274
g17
sg21
g6
sg22
g6
sg23
g6
sg24
g6
sS'exercised_stock_options_log'
p1275
F14.377276033664389
sg26
g17
sg27
g6
sS'total_stock_value_log'
p1276
F14.48095760788194
sg29
g6
sg30
I1945360
sg31
g6
sS'deferral_payments_log'
p1277
g17
sS'other_log'
p1278
g17
sg34
g6
sS'total_payments_log'
p1279
g17
sg36
I264013
sS'long_term_incentive_log'
p1280
g17
sg38
g6
sg39
g6
sg40
I1753766
sS'loan_advances_log'
p1281
g17
sS'deferred_income_log'
p1282
g17
ssS'HAEDICKE MARK E'
p1283
(dp1284
S'expenses_log'
p1285
F11.240709834752362
sg4
I4009
sg5
I2157527
sS'bonus_log'
p1286
F13.955272500339433
sg8
I76169
sg9
I00
sg10
I-934484
sS'restricted_stock_log'
p1287
F13.169569430389048
sg12
S'mark.haedicke@enron.com'
p1288
sg14
I983346
sg15
F0.03142709943328181
sS'restricted_stock_deferred_log'
p1289
g17
sS'salary_log'
p1290
F12.832345245155
sg19
I-329825
sS'director_fees_log'
p1291
g17
sg21
I1847
sg22
g6
sg23
I1941
sg24
I52382
sS'exercised_stock_options_log'
p1292
F13.319162953378937
sg26
F0.04489897730107259
sg27
g6
sS'total_stock_value_log'
p1293
F13.596227047098962
sg29
I1150000
sg30
I803094
sg31
I180
sS'deferral_payments_log'
p1294
F14.58447321634577
sS'other_log'
p1295
F10.86631829984518
sg34
I61
sS'total_payments_log'
p1296
F15.165935484119803
sg36
I524169
sS'long_term_incentive_log'
p1297
F13.79871632092086
sg38
I374125
sg39
I3859065
sg40
I608750
sS'loan_advances_log'
p1298
g17
sS'deferred_income_log'
p1299
g17
ssS'BOWEN JR RAYMOND M'
p1300
(dp1301
S'expenses_log'
p1302
F11.09599993639729
sg4
I1858
sg5
g6
sS'bonus_log'
p1303
F14.115615150414612
sg8
I65907
sg9
I01
sg10
I-833
sS'restricted_stock_log'
p1304
F12.437402596647882
sg12
S'raymond.bowen@enron.com'
p1305
sg14
I974293
sg15
F0.5555555555555556
sS'restricted_stock_deferred_log'
p1306
g17
sS'salary_log'
p1307
F12.53753592969685
sg19
g6
sS'director_fees_log'
p1308
g17
sg21
I1593
sg22
g6
sg23
I27
sg24
I1621
sS'exercised_stock_options_log'
p1309
g17
sg26
F0.07534983853606028
sg27
g6
sS'total_stock_value_log'
p1310
F12.437402596647882
sg29
I1350000
sg30
I252055
sg31
I140
sS'deferral_payments_log'
p1311
g17
sS'other_log'
p1312
F7.390798521735676
sg34
I15
sS'total_payments_log'
p1313
F14.797435085943327
sg36
I252055
sS'long_term_incentive_log'
p1314
F13.789467358742236
sg38
I278601
sg39
I2669589
sg40
g6
sS'loan_advances_log'
p1315
g17
sS'deferred_income_log'
p1316
g17
ssS'GILLIS JOHN'
p1317
(dp1318
S'expenses_log'
p1319
g17
sg4
g6
sg5
g6
sS'bonus_log'
p1320
g17
sg8
g6
sg9
I00
sg10
g6
sS'restricted_stock_log'
p1321
F11.236354765273157
sg12
g6
sg14
g6
sg15
g17
sS'restricted_stock_deferred_log'
p1322
g17
sS'salary_log'
p1323
g17
sg19
g6
sS'director_fees_log'
p1324
g17
sg21
g6
sg22
g6
sg23
g6
sg24
g6
sS'exercised_stock_options_log'
p1325
F9.190443740261726
sg26
g17
sg27
g6
sS'total_stock_value_log'
p1326
F11.357919419421995
sg29
g6
sg30
I85641
sg31
g6
sS'deferral_payments_log'
p1327
g17
sS'other_log'
p1328
g17
sg34
g6
sS'total_payments_log'
p1329
g17
sg36
I75838
sS'long_term_incentive_log'
p1330
g17
sg38
g6
sg39
g6
sg40
I9803
sS'loan_advances_log'
p1331
g17
sS'deferred_income_log'
p1332
g17
ssS'FITZGERALD JAY L'
p1333
(dp1334
S'expenses_log'
p1335
F10.080377719332876
sg4
I936
sg5
g6
sS'bonus_log'
p1336
F12.765688433465597
sg8
I23870
sg9
I00
sg10
g6
sS'restricted_stock_log'
p1337
F13.7713235330746
sg12
S'jay.fitzgerald@enron.com'
p1338
sg14
I556416
sg15
F0.5
sS'restricted_stock_deferred_log'
p1339
g17
sS'salary_log'
p1340
F12.20184873737695
sg19
g6
sS'director_fees_log'
p1341
g17
sg21
I723
sg22
g6
sg23
I16
sg24
I285414
sS'exercised_stock_options_log'
p1342
F13.406731464668146
sg26
F0.0010683760683760685
sg27
g6
sS'total_stock_value_log'
p1343
F14.298699379263248
sg29
I350000
sg30
I1621236
sg31
I1
sS'deferral_payments_log'
p1344
g17
sS'other_log'
p1345
F12.561696036781122
sg34
I8
sS'total_payments_log'
p1346
F14.162539023881891
sg36
I956775
sS'long_term_incentive_log'
p1347
F13.22927149490841
sg38
I199157
sg39
I1414857
sg40
I664461
sS'loan_advances_log'
p1348
g17
sS'deferred_income_log'
p1349
g17
ssS'MORAN MICHAEL P'
p1350
(dp1351
S'expenses_log'
p1352
g17
sg4
I672
sg5
g6
sS'bonus_log'
p1353
g17
sg8
g6
sg9
I00
sg10
g6
sS'restricted_stock_log'
p1354
F11.99289180123017
sg12
S'michael.moran@enron.com'
p1355
sg14
g6
sg15
F0.0
sS'restricted_stock_deferred_log'
p1356
g17
sS'salary_log'
p1357
g17
sg19
g6
sS'director_fees_log'
p1358
g17
sg21
I127
sg22
g6
sg23
I19
sg24
g6
sS'exercised_stock_options_log'
p1359
F10.99438683899708
sg26
F0.0
sg27
g6
sS'total_stock_value_log'
p1360
F12.306555786108417
sg29
g6
sg30
I221141
sg31
I0
sS'deferral_payments_log'
p1361
g17
sS'other_log'
p1362
g17
sg34
I0
sS'total_payments_log'
p1363
g17
sg36
I161602
sS'long_term_incentive_log'
p1364
g17
sg38
g6
sg39
g6
sg40
I59539
sS'loan_advances_log'
p1365
g17
sS'deferred_income_log'
p1366
g17
ssS'REDMOND BRIAN L'
p1367
(dp1368
S'expenses_log'
p1369
F9.594854193331415
sg4
I1671
sg5
g6
sS'bonus_log'
p1370
g17
sg8
I14689
sg9
I00
sg10
g6
sS'restricted_stock_log'
p1371
F12.851302405968784
sg12
S'brian.redmond@enron.com'
p1372
sg14
g6
sg15
F0.22171945701357465
sS'restricted_stock_deferred_log'
p1373
g17
sS'salary_log'
p1374
F11.480815411051994
sg19
g6
sS'director_fees_log'
p1375
g17
sg21
I1063
sg22
g6
sg23
I221
sg24
g6
sS'exercised_stock_options_log'
p1376
F15.831618052836012
sg26
F0.12208258527827648
sg27
g6
sS'total_stock_value_log'
p1377
F15.881147756617711
sg29
g6
sg30
I7890324
sg31
I204
sS'deferral_payments_log'
p1378
g17
sS'other_log'
p1379
g17
sg34
I49
sS'total_payments_log'
p1380
F11.62203992575095
sg36
I381285
sS'long_term_incentive_log'
p1381
g17
sg38
I96840
sg39
I111529
sg40
I7509039
sS'loan_advances_log'
p1382
g17
sS'deferred_income_log'
p1383
g17
ssS'BAZELIDES PHILIP J'
p1384
(dp1385
S'expenses_log'
p1386
g17
sg4
g6
sg5
I684694
sS'bonus_log'
p1387
g17
sg8
g6
sg9
I00
sg10
g6
sS'restricted_stock_log'
p1388
g17
sg12
g6
sg14
I93750
sg15
g17
sS'restricted_stock_deferred_log'
p1389
g17
sS'salary_log'
p1390
F11.299954991976355
sg19
g6
sS'director_fees_log'
p1391
g17
sg21
g6
sg22
g6
sg23
g6
sg24
I874
sS'exercised_stock_options_log'
p1392
F14.285289787034174
sg26
g17
sg27
g6
sS'total_stock_value_log'
p1393
F14.285289787034174
sg29
g6
sg30
I1599641
sg31
g6
sS'deferral_payments_log'
p1394
F13.436727302108878
sS'other_log'
p1395
F6.773080375655535
sg34
g6
sS'total_payments_log'
p1396
F13.664845795261837
sg36
g6
sS'long_term_incentive_log'
p1397
F11.448386943832658
sg38
I80818
sg39
I860136
sg40
I1599641
sS'loan_advances_log'
p1398
g17
sS'deferred_income_log'
p1399
g17
ssS'BELDEN TIMOTHY N'
p1400
(dp1401
S'expenses_log'
p1402
F9.761635928295886
sg4
I7991
sg5
I2144013
sS'bonus_log'
p1403
F15.473738444091598
sg8
I17355
sg9
I01
sg10
I-2334434
sS'restricted_stock_log'
p1404
F11.96761873655022
sg12
S'tim.belden@enron.com'
p1405
sg14
g6
sg15
F0.2231404958677686
sS'restricted_stock_deferred_log'
p1406
g17
sS'salary_log'
p1407
F12.273726621095875
sg19
g6
sS'director_fees_log'
p1408
g17
sg21
I5521
sg22
g6
sg23
I484
sg24
I210698
sS'exercised_stock_options_log'
p1409
F13.767512879694923
sg26
F0.028532098610937303
sg27
g6
sS'total_stock_value_log'
p1410
F13.920505506810695
sg29
I5249999
sg30
I1110705
sg31
I228
sS'deferral_payments_log'
p1411
F14.578189864587284
sS'other_log'
p1412
F12.258181107578269
sg34
I108
sS'total_payments_log'
p1413
F15.520554969932036
sg36
I157569
sS'long_term_incentive_log'
p1414
g17
sg38
I213999
sg39
I5501630
sg40
I953136
sS'loan_advances_log'
p1415
g17
sS'deferred_income_log'
p1416
g17
ssS'DURAN WILLIAM D'
p1417
(dp1418
S'expenses_log'
p1419
F10.157548206485059
sg4
I904
sg5
g6
sS'bonus_log'
p1420
F13.527828485512494
sg8
I25785
sg9
I00
sg10
g6
sS'restricted_stock_log'
p1421
F12.149719201732536
sg12
S'w.duran@enron.com'
p1422
sg14
I1105218
sg15
F0.25
sS'restricted_stock_deferred_log'
p1423
g17
sS'salary_log'
p1424
F12.25815263039561
sg19
g6
sS'director_fees_log'
p1425
g17
sg21
I599
sg22
g6
sg23
I12
sg24
I1568
sS'exercised_stock_options_log'
p1426
F14.1883622499111
sg26
F0.1172566371681416
sg27
g6
sS'total_stock_value_log'
p1427
F14.310761523961261
sg29
I750000
sg30
I1640910
sg31
I106
sS'deferral_payments_log'
p1428
g17
sS'other_log'
p1429
F7.357556200910353
sg34
I3
sS'total_payments_log'
p1430
F14.554234650485707
sg36
I189041
sS'long_term_incentive_log'
p1431
F13.915553158543723
sg38
I210692
sg39
I2093263
sg40
I1451869
sS'loan_advances_log'
p1432
g17
sS'deferred_income_log'
p1433
g17
ssS'THORN TERENCE H'
p1434
(dp1435
S'expenses_log'
p1436
F10.739543891699677
sg4
I266
sg5
I16586
sS'bonus_log'
p1437
g17
sg8
I46145
sg9
I00
sg10
g6
sS'restricted_stock_log'
p1438
F12.808528960805615
sg12
S'terence.thorn@enron.com'
p1439
sg14
I200000
sg15
F0.0
sS'restricted_stock_deferred_log'
p1440
g17
sS'salary_log'
p1441
F12.310851492051302
sg19
g6
sS'director_fees_log'
p1442
g17
sg21
I73
sg22
g6
sg23
I41
sg24
I426629
sS'exercised_stock_options_log'
p1443
F15.30897090390122
sg26
F0.0
sg27
g6
sS'total_stock_value_log'
p1444
F15.387827120040116
sg29
g6
sg30
I4817796
sg31
I0
sS'deferral_payments_log'
p1445
F9.71631424501115
sS'other_log'
p1446
F12.963670062080672
sg34
I0
sS'total_payments_log'
p1447
F13.722795308414316
sg36
I365320
sS'long_term_incentive_log'
p1448
F12.206072645530174
sg38
I222093
sg39
I911453
sg40
I4452476
sS'loan_advances_log'
p1449
g17
sS'deferred_income_log'
p1450
g17
ssS'FASTOW ANDREW S'
p1451
(dp1452
S'expenses_log'
p1453
F10.931695259437355
sg4
g6
sg5
g6
sS'bonus_log'
p1454
F14.077874822431765
sg8
I55921
sg9
I01
sg10
I-1386055
sS'restricted_stock_log'
p1455
F14.40018794963791
sg12
S'andrew.fastow@enron.com'
p1456
sg14
I1736055
sg15
g17
sS'restricted_stock_deferred_log'
p1457
g17
sS'salary_log'
p1458
F12.996115112585153
sg19
g6
sS'director_fees_log'
p1459
g17
sg21
g6
sg22
g6
sg23
g6
sg24
I277464
sS'exercised_stock_options_log'
p1460
g17
sg26
g17
sg27
g6
sS'total_stock_value_log'
p1461
F14.40018794963791
sg29
I1300000
sg30
I1794412
sg31
g6
sS'deferral_payments_log'
p1462
g17
sS'other_log'
p1463
F12.533446474023267
sg34
g6
sS'total_payments_log'
p1464
F14.700963866509227
sg36
I1794412
sS'long_term_incentive_log'
p1465
F14.367125855728217
sg38
I440698
sg39
I2424083
sg40
g6
sS'loan_advances_log'
p1466
g17
sS'deferred_income_log'
p1467
g17
ssS'FOY JOE'
p1468
(dp1469
S'expenses_log'
p1470
g17
sg4
I57
sg5
I181755
sS'bonus_log'
p1471
g17
sg8
g6
sg9
I00
sg10
g6
sS'restricted_stock_log'
p1472
g17
sg12
S'tracy.foy@enron.com'
p1473
sg14
g6
sg15
F0.0
sS'restricted_stock_deferred_log'
p1474
g17
sS'salary_log'
p1475
g17
sg19
g6
sS'director_fees_log'
p1476
g17
sg21
I2
sg22
g6
sg23
I13
sg24
g6
sS'exercised_stock_options_log'
p1477
F12.746750232445345
sg26
F0.0
sg27
g6
sS'total_stock_value_log'
p1478
F12.746750232445345
sg29
g6
sg30
I343434
sg31
I0
sS'deferral_payments_log'
p1479
F12.110414905333732
sS'other_log'
p1480
g17
sg34
I0
sS'total_payments_log'
p1481
F12.110414905333732
sg36
g6
sS'long_term_incentive_log'
p1482
g17
sg38
g6
sg39
I181755
sg40
I343434
sS'loan_advances_log'
p1483
g17
sS'deferred_income_log'
p1484
g17
ssS'CALGER CHRISTOPHER F'
p1485
(dp1486
S'expenses_log'
p1487
F10.486205839326685
sg4
I2598
sg5
g6
sS'bonus_log'
p1488
F14.038654109278484
sg8
I35818
sg9
I01
sg10
I-262500
sS'restricted_stock_log'
p1489
F11.744251448691996
sg12
S'christopher.calger@enron.com'
p1490
sg14
I375304
sg15
F0.1736111111111111
sS'restricted_stock_deferred_log'
p1491
g17
sS'salary_log'
p1492
F12.389181392408698
sg19
g6
sS'director_fees_log'
p1493
g17
sg21
I2188
sg22
g6
sg23
I144
sg24
I486
sS'exercised_stock_options_log'
p1494
g17
sg26
F0.07659738260200154
sg27
g6
sS'total_stock_value_log'
p1495
F11.744251448691996
sg29
I1250000
sg30
I126027
sg31
I199
sS'deferral_payments_log'
p1496
g17
sS'other_log'
p1497
F6.186208623900494
sg34
I25
sS'total_payments_log'
p1498
F14.309778049363462
sg36
I126027
sS'long_term_incentive_log'
p1499
F12.835491643206469
sg38
I240189
sg39
I1639297
sg40
g6
sS'loan_advances_log'
p1500
g17
sS'deferred_income_log'
p1501
g17
ssS'RICE KENNETH D'
p1502
(dp1503
S'expenses_log'
p1504
F10.75683848463641
sg4
I905
sg5
g6
sS'bonus_log'
p1505
F14.375126345899696
sg8
I46950
sg9
I01
sg10
I-3504386
sS'restricted_stock_log'
p1506
F14.826516383523218
sg12
S'ken.rice@enron.com'
p1507
sg14
I1617011
sg15
F0.2222222222222222
sS'restricted_stock_deferred_log'
p1508
g17
sS'salary_log'
p1509
F12.949523130599362
sg19
g6
sS'director_fees_log'
p1510
g17
sg21
I864
sg22
g6
sg23
I18
sg24
I174839
sS'exercised_stock_options_log'
p1511
F16.80089826046264
sg26
F0.04640883977900553
sg27
g6
sS'total_stock_value_log'
p1512
F16.930914704420132
sg29
I1750000
sg30
I22542539
sg31
I42
sS'deferral_payments_log'
p1513
g17
sS'other_log'
p1514
F12.071620829445909
sg34
I4
sS'total_payments_log'
p1515
F13.132412713257331
sg36
I2748364
sS'long_term_incentive_log'
p1516
F14.296089941257193
sg38
I420636
sg39
I505050
sg40
I19794175
sS'loan_advances_log'
p1517
g17
sS'deferred_income_log'
p1518
g17
ssS'KAMINSKI WINCENTY J'
p1519
(dp1520
S'expenses_log'
p1521
F11.333619357136731
sg4
I4607
sg5
g6
sS'bonus_log'
p1522
F12.89921982609012
sg8
I83585
sg9
I00
sg10
g6
sS'restricted_stock_log'
p1523
F11.744251448691996
sg12
S'vince.kaminski@enron.com'
p1524
sg14
I323466
sg15
F0.011901447661469933
sS'restricted_stock_deferred_log'
p1525
g17
sS'salary_log'
p1526
F12.524893581947863
sg19
g6
sS'director_fees_log'
p1527
g17
sg21
I583
sg22
g6
sg23
I14368
sg24
I4669
sS'exercised_stock_options_log'
p1528
F13.653003393103178
sg26
F0.008899500759713479
sg27
g6
sS'total_stock_value_log'
p1529
F13.791255774512736
sg29
I400000
sg30
I976037
sg31
I41
sS'deferral_payments_log'
p1530
g17
sS'other_log'
p1531
F8.448700194970938
sg34
I171
sS'total_payments_log'
p1532
F13.898767479130127
sg36
I126027
sS'long_term_incentive_log'
p1533
F12.686849286935972
sg38
I275101
sg39
I1086821
sg40
I850010
sS'loan_advances_log'
p1534
g17
sS'deferred_income_log'
p1535
g17
ssS'COX DAVID'
p1536
(dp1537
S'expenses_log'
p1538
F10.234983140444118
sg4
I102
sg5
g6
sS'bonus_log'
p1539
F13.592367006650065
sg8
I27861
sg9
I00
sg10
I-41250
sS'restricted_stock_log'
p1540
F12.842866382292481
sg12
S'chip.cox@enron.com'
p1541
sg14
g6
sg15
F0.12121212121212122
sS'restricted_stock_deferred_log'
p1542
g17
sS'salary_log'
p1543
F12.658065041974057
sg19
g6
sS'director_fees_log'
p1544
g17
sg21
I71
sg22
g6
sg23
I33
sg24
I494
sS'exercised_stock_options_log'
p1545
F11.674627560950322
sg26
F0.0
sg27
g6
sS'total_stock_value_log'
p1546
F13.113591012476794
sg29
I800000
sg30
I495633
sg31
I0
sS'deferral_payments_log'
p1547
g17
sS'other_log'
p1548
F6.202535517187923
sg34
I4
sS'total_payments_log'
p1549
F13.912086300242837
sg36
I378082
sS'long_term_incentive_log'
p1550
g17
sg38
I314288
sg39
I1101393
sg40
I117551
sS'loan_advances_log'
p1551
g17
sS'deferred_income_log'
p1552
g17
ssS'OVERDYKE JR JERE C'
p1553
(dp1554
S'expenses_log'
p1555
F9.84341902607001
sg4
g6
sg5
g6
sS'bonus_log'
p1556
g17
sg8
I18834
sg9
I00
sg10
g6
sS'restricted_stock_log'
p1557
F14.528958281055719
sg12
S'jere.overdyke@enron.com'
p1558
sg14
I135836
sg15
g17
sS'restricted_stock_deferred_log'
p1559
g17
sS'salary_log'
p1560
F11.461010925018028
sg19
g6
sS'director_fees_log'
p1561
g17
sg21
g6
sg22
g6
sg23
g6
sg24
I176
sS'exercised_stock_options_log'
p1562
F15.47689137374433
sg26
g17
sg27
g6
sS'total_stock_value_log'
p1563
F15.804424639381212
sg29
g6
sg30
I7307594
sg31
g6
sS'deferral_payments_log'
p1564
g17
sS'other_log'
p1565
F5.170483995038151
sg34
g6
sS'total_payments_log'
p1566
F12.428363833686095
sg36
I2041016
sS'long_term_incentive_log'
p1567
F11.819203554704082
sg38
I94941
sg39
I249787
sg40
I5266578
sS'loan_advances_log'
p1568
g17
sS'deferred_income_log'
p1569
g17
ssS'PEREIRA PAULO V. FERRAZ'
p1570
(dp1571
S'expenses_log'
p1572
F10.237886212210432
sg4
g6
sg5
g6
sS'bonus_log'
p1573
g17
sg8
I27942
sg9
I00
sg10
I-101250
sS'restricted_stock_log'
p1574
g17
sg12
g6
sg14
g6
sg15
g17
sS'restricted_stock_deferred_log'
p1575
g17
sS'salary_log'
p1576
g17
sg19
g6
sS'director_fees_log'
p1577
F11.525347984968786
sg21
g6
sg22
g6
sg23
g6
sg24
g6
sS'exercised_stock_options_log'
p1578
g17
sg26
g17
sg27
I101250
sS'total_stock_value_log'
p1579
g17
sg29
g6
sg30
g6
sg31
g6
sS'deferral_payments_log'
p1580
g17
sS'other_log'
p1581
g17
sg34
g6
sS'total_payments_log'
p1582
F10.237886212210432
sg36
g6
sS'long_term_incentive_log'
p1583
g17
sg38
g6
sg39
I27942
sg40
g6
sS'loan_advances_log'
p1584
g17
sS'deferred_income_log'
p1585
g17
ssS'STABLER FRANK'
p1586
(dp1587
S'expenses_log'
p1588
F9.711963784977375
sg4
g6
sg5
g6
sS'bonus_log'
p1589
F13.122363377404328
sg8
I16514
sg9
I00
sg10
g6
sS'restricted_stock_log'
p1590
F13.145560237768525
sg12
S'frank.stabler@enron.com'
p1591
sg14
g6
sg15
g17
sS'restricted_stock_deferred_log'
p1592
g17
sS'salary_log'
p1593
F12.386317046528928
sg19
g6
sS'director_fees_log'
p1594
g17
sg21
g6
sg22
g6
sg23
g6
sg24
I356071
sS'exercised_stock_options_log'
p1595
g17
sg26
g17
sg27
g6
sS'total_stock_value_log'
p1596
F13.145560237768525
sg29
I500000
sg30
I511734
sg31
g6
sS'deferral_payments_log'
p1597
g17
sS'other_log'
p1598
F12.78288542815126
sg34
g6
sS'total_payments_log'
p1599
F13.92174898814235
sg36
I511734
sS'long_term_incentive_log'
p1600
g17
sg38
I239502
sg39
I1112087
sg40
g6
sS'loan_advances_log'
p1601
g17
sS'deferred_income_log'
p1602
g17
ssS'SKILLING JEFFREY K'
p1603
(dp1604
S'expenses_log'
p1605
F10.286570709751162
sg4
I3627
sg5
g6
sS'bonus_log'
p1606
F15.538277155705378
sg8
I29336
sg9
I01
sg10
g6
sS'restricted_stock_log'
p1607
F15.738834987655824
sg12
S'jeff.skilling@enron.com'
p1608
sg14
I1920000
sg15
F0.2777777777777778
sS'restricted_stock_deferred_log'
p1609
g17
sS'salary_log'
p1610
F13.921003264884451
sg19
g6
sS'director_fees_log'
p1611
g17
sg21
I2042
sg22
g6
sg23
I108
sg24
I22122
sS'exercised_stock_options_log'
p1612
F16.773021618698067
sg26
F0.0242624758753791
sg27
g6
sS'total_stock_value_log'
p1613
F17.07720339078938
sg29
I5600000
sg30
I26093672
sg31
I88
sS'deferral_payments_log'
p1614
g17
sS'other_log'
p1615
F10.0043278674622
sg34
I30
sS'total_payments_log'
p1616
F15.976844940918335
sg36
I6843672
sS'long_term_incentive_log'
p1617
F14.467835744003965
sg38
I1111258
sg39
I8682716
sg40
I19250000
sS'loan_advances_log'
p1618
g17
sS'deferred_income_log'
p1619
g17
ssS'BLAKE JR. NORMAN P'
p1620
(dp1621
S'expenses_log'
p1622
F7.153833801578843
sg4
g6
sg5
g6
sS'bonus_log'
p1623
g17
sg8
I1279
sg9
I00
sg10
I-113784
sS'restricted_stock_log'
p1624
g17
sg12
g6
sg14
g6
sg15
g17
sS'restricted_stock_deferred_log'
p1625
g17
sS'salary_log'
p1626
g17
sg19
g6
sS'director_fees_log'
p1627
F11.642057193250064
sg21
g6
sg22
g6
sg23
g6
sg24
g6
sS'exercised_stock_options_log'
p1628
g17
sg26
g17
sg27
I113784
sS'total_stock_value_log'
p1629
g17
sg29
g6
sg30
g6
sg31
g6
sS'deferral_payments_log'
p1630
g17
sS'other_log'
p1631
g17
sg34
g6
sS'total_payments_log'
p1632
F7.153833801578843
sg36
g6
sS'long_term_incentive_log'
p1633
g17
sg38
g6
sg39
I1279
sg40
g6
sS'loan_advances_log'
p1634
g17
sS'deferred_income_log'
p1635
g17
ssS'SHERRICK JEFFREY B'
p1636
(dp1637
S'expenses_log'
p1638
g17
sg4
I613
sg5
g6
sS'bonus_log'
p1639
g17
sg8
g6
sg9
I00
sg10
g6
sS'restricted_stock_log'
p1640
F12.914105975526649
sg12
S'jeffrey.sherrick@enron.com'
p1641
sg14
g6
sg15
F0.72
sS'restricted_stock_deferred_log'
p1642
g17
sS'salary_log'
p1643
g17
sg19
g6
sS'director_fees_log'
p1644
g17
sg21
I583
sg22
g6
sg23
I25
sg24
g6
sS'exercised_stock_options_log'
p1645
F14.170712717888868
sg26
F0.0636215334420881
sg27
g6
sS'total_stock_value_log'
p1646
F14.421174250107526
sg29
g6
sg30
I1832468
sg31
I39
sS'deferral_payments_log'
p1647
g17
sS'other_log'
p1648
g17
sg34
I18
sS'total_payments_log'
p1649
g17
sg36
I405999
sS'long_term_incentive_log'
p1650
g17
sg38
g6
sg39
g6
sg40
I1426469
sS'loan_advances_log'
p1651
g17
sS'deferred_income_log'
p1652
g17
ssS'PRENTICE JAMES'
p1653
(dp1654
S'expenses_log'
p1655
g17
sg4
g6
sg5
I564348
sS'bonus_log'
p1656
g17
sg8
g6
sg9
I00
sg10
g6
sS'restricted_stock_log'
p1657
F12.24917523750997
sg12
S'james.prentice@enron.com'
p1658
sg14
g6
sg15
g17
sS'restricted_stock_deferred_log'
p1659
g17
sS'salary_log'
p1660
g17
sg19
g6
sS'director_fees_log'
p1661
g17
sg21
g6
sg22
g6
sg23
g6
sg24
g6
sS'exercised_stock_options_log'
p1662
F13.694732917952683
sg26
g17
sg27
g6
sS'total_stock_value_log'
p1663
F13.90630145024591
sg29
g6
sg30
I1095040
sg31
g6
sS'deferral_payments_log'
p1664
F13.24342636147743
sS'other_log'
p1665
g17
sg34
g6
sS'total_payments_log'
p1666
F13.24342636147743
sg36
I208809
sS'long_term_incentive_log'
p1667
g17
sg38
g6
sg39
I564348
sg40
I886231
sS'loan_advances_log'
p1668
g17
sS'deferred_income_log'
p1669
g17
ssS'GRAY RODNEY'
p1670
(dp1671
S'expenses_log'
p1672
g17
sg4
g6
sg5
I93585
sS'bonus_log'
p1673
g17
sg8
g6
sg9
I00
sg10
g6
sS'restricted_stock_log'
p1674
g17
sg12
g6
sg14
I365625
sg15
g17
sS'restricted_stock_deferred_log'
p1675
g17
sS'salary_log'
p1676
F8.797095076549056
sg19
g6
sS'director_fees_log'
p1677
g17
sg21
g6
sg22
g6
sg23
g6
sg24
I680833
sS'exercised_stock_options_log'
p1678
g17
sg26
g17
sg27
g6
sS'total_stock_value_log'
p1679
g17
sg29
g6
sg30
g6
sg31
g6
sS'deferral_payments_log'
p1680
F11.446625393212996
sS'other_log'
p1681
F13.431072327451982
sg34
g6
sS'total_payments_log'
p1682
F13.952362182513374
sg36
g6
sS'long_term_incentive_log'
p1683
F12.809363496968258
sg38
I6615
sg39
I1146658
sg40
g6
sS'loan_advances_log'
p1684
g17
sS'deferred_income_log'
p1685
g17
ssS'PICKERING MARK R'
p1686
(dp1687
S'expenses_log'
p1688
F10.362588209810202
sg4
I898
sg5
g6
sS'bonus_log'
p1689
F12.611537753638338
sg8
I31653
sg9
I00
sg10
g6
sS'restricted_stock_log'
p1690
g17
sg12
S'mark.pickering@enron.com'
p1691
sg14
g6
sg15
F0.0
sS'restricted_stock_deferred_log'
p1692
g17
sS'salary_log'
p1693
F13.39244700157159
sg19
g6
sS'director_fees_log'
p1694
g17
sg21
I728
sg22
I400000
sg23
I67
sg24
g6
sS'exercised_stock_options_log'
p1695
F10.268061219268215
sg26
F0.0077951002227171495
sg27
g6
sS'total_stock_value_log'
p1696
F10.268061219268215
sg29
I300000
sg30
I28798
sg31
I7
sS'deferral_payments_log'
p1697
g17
sS'other_log'
p1698
g17
sg34
I0
sS'total_payments_log'
p1699
F14.142430170350842
sg36
g6
sS'long_term_incentive_log'
p1700
g17
sg38
I655037
sg39
I1386690
sg40
I28798
sS'loan_advances_log'
p1701
F12.89921982609012
sS'deferred_income_log'
p1702
g17
ssS'NOLES JAMES L'
p1703
(dp1704
S'expenses_log'
p1705
g17
sg4
g6
sg5
I774401
sS'bonus_log'
p1706
g17
sg8
g6
sg9
I00
sg10
g6
sS'restricted_stock_log'
p1707
F13.046045889143619
sg12
g6
sg14
g6
sg15
g17
sS'restricted_stock_deferred_log'
p1708
g17
sS'salary_log'
p1709
g17
sg19
I-94556
sS'director_fees_log'
p1710
g17
sg21
g6
sg22
g6
sg23
g6
sg24
g6
sS'exercised_stock_options_log'
p1711
g17
sg26
g17
sg27
g6
sS'total_stock_value_log'
p1712
F12.81775214529112
sg29
g6
sg30
I368705
sg31
g6
sS'deferral_payments_log'
p1713
F13.559845106265985
sS'other_log'
p1714
g17
sg34
g6
sS'total_payments_log'
p1715
F13.559845106265985
sg36
I463261
sS'long_term_incentive_log'
p1716
g17
sg38
g6
sg39
I774401
sg40
g6
sS'loan_advances_log'
p1717
g17
sS'deferred_income_log'
p1718
g17
ssS'KEAN STEVEN J'
p1719
(dp1720
S'expenses_log'
p1721
F10.644305223045162
sg4
I12754
sg5
g6
sS'bonus_log'
p1722
F13.815510557964274
sg8
I41953
sg9
I00
sg10
g6
sS'restricted_stock_log'
p1723
F15.234173846891661
sg12
S'steven.kean@enron.com'
p1724
sg14
I300000
sg15
F0.05725699067909454
sS'restricted_stock_deferred_log'
p1725
g17
sS'salary_log'
p1726
F12.91000644082379
sg19
g6
sS'director_fees_log'
p1727
g17
sg21
I3639
sg22
g6
sg23
I6759
sg24
I1231
sS'exercised_stock_options_log'
p1728
F14.519621417153195
sg26
F0.010976948408342482
sg27
g6
sS'total_stock_value_log'
p1729
F15.632554659626317
sg29
I1000000
sg30
I6153642
sg31
I140
sS'deferral_payments_log'
p1730
g17
sS'other_log'
p1731
F7.115582126184454
sg34
I387
sS'total_payments_log'
p1732
F14.373709342424304
sg36
I4131594
sS'long_term_incentive_log'
p1733
F12.611537753638338
sg38
I404338
sg39
I1747522
sg40
I2022048
sS'loan_advances_log'
p1734
g17
sS'deferred_income_log'
p1735
g17
ssS'FOWLER PEGGY'
p1736
(dp1737
S'expenses_log'
p1738
g17
sg4
I517
sg5
g6
sS'bonus_log'
p1739
g17
sg8
g6
sg9
I00
sg10
g6
sS'restricted_stock_log'
p1740
F13.23599558807142
sg12
S'kulvinder.fowler@enron.com'
p1741
sg14
g6
sg15
F0.0
sS'restricted_stock_deferred_log'
p1742
g17
sS'salary_log'
p1743
g17
sg19
g6
sS'director_fees_log'
p1744
g17
sg21
I10
sg22
g6
sg23
I36
sg24
g6
sS'exercised_stock_options_log'
p1745
F14.09660447610753
sg26
F0.0
sg27
g6
sS'total_stock_value_log'
p1746
F14.449304682924693
sg29
g6
sg30
I1884748
sg31
I0
sS'deferral_payments_log'
p1747
g17
sS'other_log'
p1748
g17
sg34
I0
sS'total_payments_log'
p1749
g17
sg36
I560170
sS'long_term_incentive_log'
p1750
g17
sg38
g6
sg39
g6
sg40
I1324578
sS'loan_advances_log'
p1751
g17
sS'deferred_income_log'
p1752
g17
ssS'WASAFF GEORGE'
p1753
(dp1754
S'expenses_log'
p1755
g17
sg4
I400
sg5
I831299
sS'bonus_log'
p1756
F12.691580461311874
sg8
g6
sg9
I00
sg10
I-583325
sS'restricted_stock_log'
p1757
F12.86919093837571
sg12
S'george.wasaff@enron.com'
p1758
sg14
I200000
sg15
F0.23333333333333334
sS'restricted_stock_deferred_log'
p1759
g17
sS'salary_log'
p1760
F12.468421525263937
sg19
g6
sS'director_fees_log'
p1761
g17
sg21
I337
sg22
g6
sg23
I30
sg24
I1425
sS'exercised_stock_options_log'
p1762
F14.327291725053296
sg26
F0.055
sg27
g6
sS'total_stock_value_log'
p1763
F14.536480568818588
sg29
I325000
sg30
I2056427
sg31
I22
sS'deferral_payments_log'
p1764
F13.630744816583293
sS'other_log'
p1765
F7.261927092702751
sg34
I7
sS'total_payments_log'
p1766
F13.849327272708072
sg36
I388167
sS'long_term_incentive_log'
p1767
F12.206072645530174
sg38
I259996
sg39
I1034395
sg40
I1668260
sS'loan_advances_log'
p1768
g17
sS'deferred_income_log'
p1769
g17
ssS'WHITE JR THOMAS E'
p1770
(dp1771
S'expenses_log'
p1772
F11.306552989656216
sg4
g6
sg5
g6
sS'bonus_log'
p1773
F13.017002861746503
sg8
I81353
sg9
I00
sg10
g6
sS'restricted_stock_log'
p1774
F16.443584504740432
sg12
S'thomas.white@enron.com'
p1775
sg14
g6
sg15
g17
sS'restricted_stock_deferred_log'
p1776
g17
sS'salary_log'
p1777
F12.66836852121552
sg19
g6
sS'director_fees_log'
p1778
g17
sg21
g6
sg22
g6
sg23
g6
sg24
I1085463
sS'exercised_stock_options_log'
p1779
F14.075602242076087
sg26
g17
sg27
g6
sS'total_stock_value_log'
p1780
F16.533123093866838
sg29
I450000
sg30
I15144123
sg31
g6
sS'deferral_payments_log'
p1781
g17
sS'other_log'
p1782
F13.89751718204475
sg34
g6
sS'total_payments_log'
p1783
F14.475286563415397
sg36
I13847074
sS'long_term_incentive_log'
p1784
g17
sg38
I317543
sg39
I1934359
sg40
I1297049
sS'loan_advances_log'
p1785
g17
sS'deferred_income_log'
p1786
g17
ssS'CHRISTODOULOU DIOMEDES'
p1787
(dp1788
S'expenses_log'
p1789
g17
sg4
g6
sg5
g6
sS'bonus_log'
p1790
g17
sg8
g6
sg9
I00
sg10
g6
sS'restricted_stock_log'
p1791
F13.764985389545055
sg12
S'diomedes.christodoulou@enron.com'
p1792
sg14
g6
sg15
g17
sS'restricted_stock_deferred_log'
p1793
g17
sS'salary_log'
p1794
g17
sg19
g6
sS'director_fees_log'
p1795
g17
sg21
g6
sg22
g6
sg23
g6
sg24
g6
sS'exercised_stock_options_log'
p1796
F15.450061482413401
sg26
g17
sg27
g6
sS'total_stock_value_log'
p1797
F15.620167331582278
sg29
g6
sg30
I6077885
sg31
g6
sS'deferral_payments_log'
p1798
g17
sS'other_log'
p1799
g17
sg34
g6
sS'total_payments_log'
p1800
g17
sg36
I950730
sS'long_term_incentive_log'
p1801
g17
sg38
g6
sg39
g6
sg40
I5127155
sS'loan_advances_log'
p1802
g17
sS'deferred_income_log'
p1803
g17
ssS'ALLEN PHILLIP K'
p1804
(dp1805
S'expenses_log'
p1806
F9.537339306804913
sg4
I2902
sg5
I2869717
sS'bonus_log'
p1807
F15.244624916267092
sg8
I13868
sg9
I00
sg10
I-3081055
sS'restricted_stock_log'
p1808
F11.744251448691996
sg12
S'phillip.allen@enron.com'
p1809
sg14
I304805
sg15
F0.029612756264236904
sS'restricted_stock_deferred_log'
p1810
g17
sS'salary_log'
p1811
F12.215800179288685
sg19
I-126027
sS'director_fees_log'
p1812
g17
sg21
I1407
sg22
g6
sg23
I2195
sg24
I152
sS'exercised_stock_options_log'
p1813
F14.363366613351861
sg26
F0.016195727084769126
sg27
g6
sS'total_stock_value_log'
p1814
F14.363366613351861
sg29
I4175000
sg30
I1729541
sg31
I47
sS'deferral_payments_log'
p1815
F14.869723976602108
sS'other_log'
p1816
F5.0238805208462765
sg34
I65
sS'total_payments_log'
p1817
F15.316124631019163
sg36
I126027
sS'long_term_incentive_log'
p1818
F12.627427506859556
sg38
I201955
sg39
I4484442
sg40
I1729541
sS'loan_advances_log'
p1819
g17
sS'deferred_income_log'
p1820
g17
ssS'SHARP VICTORIA T'
p1821
(dp1822
S'expenses_log'
p1823
F11.664246430644395
sg4
I3136
sg5
I187469
sS'bonus_log'
p1824
F13.304684934198283
sg8
I116337
sg9
I00
sg10
g6
sS'restricted_stock_log'
p1825
F12.269343175606751
sg12
S'vicki.sharp@enron.com'
p1826
sg14
I422158
sg15
F0.04411764705882353
sS'restricted_stock_deferred_log'
p1827
g17
sS'salary_log'
p1828
F12.421772561602978
sg19
g6
sS'director_fees_log'
p1829
g17
sg21
I2477
sg22
g6
sg23
I136
sg24
I2401
sS'exercised_stock_options_log'
p1830
F12.546369701054088
sg26
F0.007653061224489796
sg27
g6
sS'total_stock_value_log'
p1831
F13.11056606192469
sg29
I600000
sg30
I494136
sg31
I24
sS'deferral_payments_log'
p1832
F12.141368777390207
sS'other_log'
p1833
F7.783640596221253
sg34
I6
sS'total_payments_log'
p1834
F14.270724735424674
sg36
I213063
sS'long_term_incentive_log'
p1835
F12.953134930528059
sg38
I248146
sg39
I1576511
sg40
I281073
sS'loan_advances_log'
p1836
g17
sS'deferred_income_log'
p1837
g17
ssS'JAEDICKE ROBERT'
p1838
(dp1839
S'expenses_log'
p1840
g17
sg4
g6
sg5
g6
sS'bonus_log'
p1841
g17
sg8
g6
sg9
I00
sg10
I-25000
sS'restricted_stock_log'
p1842
F10.694056318677243
sg12
g6
sg14
g6
sg15
g17
sS'restricted_stock_deferred_log'
p1843
g17
sS'salary_log'
p1844
g17
sg19
I-44093
sS'director_fees_log'
p1845
F11.596806948950931
sg21
g6
sg22
g6
sg23
g6
sg24
g6
sS'exercised_stock_options_log'
p1846
F12.975601996008924
sg26
g17
sg27
I108750
sS'total_stock_value_log'
p1847
F12.975601996008924
sg29
g6
sg30
I431750
sg31
g6
sS'deferral_payments_log'
p1848
g17
sS'other_log'
p1849
g17
sg34
g6
sS'total_payments_log'
p1850
F11.335591449687312
sg36
I44093
sS'long_term_incentive_log'
p1851
g17
sg38
g6
sg39
I83750
sg40
I431750
sS'loan_advances_log'
p1852
g17
sS'deferred_income_log'
p1853
g17
ssS'WINOKUR JR. HERBERT S'
p1854
(dp1855
S'expenses_log'
p1856
F7.253470382684528
sg4
g6
sg5
g6
sS'bonus_log'
p1857
g17
sg8
I1413
sg9
I00
sg10
I-25000
sS'restricted_stock_log'
p1858
g17
sg12
g6
sg14
g6
sg15
g17
sS'restricted_stock_deferred_log'
p1859
g17
sS'salary_log'
p1860
g17
sg19
g6
sS'director_fees_log'
p1861
F11.595233297617805
sg21
g6
sg22
g6
sg23
g6
sg24
g6
sS'exercised_stock_options_log'
p1862
g17
sg26
g17
sg27
I108579
sS'total_stock_value_log'
p1863
g17
sg29
g6
sg30
g6
sg31
g6
sS'deferral_payments_log'
p1864
g17
sS'other_log'
p1865
g17
sg34
g6
sS'total_payments_log'
p1866
F11.35031241339605
sg36
g6
sS'long_term_incentive_log'
p1867
g17
sg38
g6
sg39
I84992
sg40
g6
sS'loan_advances_log'
p1868
g17
sS'deferred_income_log'
p1869
g17
ssS'BROWN MICHAEL'
p1870
(dp1871
S'expenses_log'
p1872
F10.805435922694407
sg4
I1486
sg5
g6
sS'bonus_log'
p1873
g17
sg8
I49288
sg9
I00
sg10
g6
sS'restricted_stock_log'
p1874
g17
sg12
S'michael.brown@enron.com'
p1875
sg14
g6
sg15
F0.024390243902439025
sS'restricted_stock_deferred_log'
p1876
g17
sS'salary_log'
p1877
g17
sg19
g6
sS'director_fees_log'
p1878
g17
sg21
I761
sg22
g6
sg23
I41
sg24
g6
sS'exercised_stock_options_log'
p1879
g17
sg26
F0.008748317631224764
sg27
g6
sS'total_stock_value_log'
p1880
g17
sg29
g6
sg30
g6
sg31
I13
sS'deferral_payments_log'
p1881
g17
sS'other_log'
p1882
g17
sg34
I1
sS'total_payments_log'
p1883
F10.805435922694407
sg36
g6
sS'long_term_incentive_log'
p1884
g17
sg38
g6
sg39
I49288
sg40
g6
sS'loan_advances_log'
p1885
g17
sS'deferred_income_log'
p1886
g17
ssS'BADUM JAMES P'
p1887
(dp1888
S'expenses_log'
p1889
F8.156510226079966
sg4
g6
sg5
I178980
sS'bonus_log'
p1890
g17
sg8
I3486
sg9
I00
sg10
g6
sS'restricted_stock_log'
p1891
g17
sg12
g6
sg14
g6
sg15
g17
sS'restricted_stock_deferred_log'
p1892
g17
sS'salary_log'
p1893
g17
sg19
g6
sS'director_fees_log'
p1894
g17
sg21
g6
sg22
g6
sg23
g6
sg24
g6
sS'exercised_stock_options_log'
p1895
F12.460005309904263
sg26
g17
sg27
g6
sS'total_stock_value_log'
p1896
F12.460005309904263
sg29
g6
sg30
I257817
sg31
g6
sS'deferral_payments_log'
p1897
F12.09502934673685
sS'other_log'
p1898
g17
sg34
g6
sS'total_payments_log'
p1899
F12.114319133278565
sg36
g6
sS'long_term_incentive_log'
p1900
g17
sg38
g6
sg39
I182466
sg40
I257817
sS'loan_advances_log'
p1901
g17
sS'deferred_income_log'
p1902
g17
ssS'HUGHES JAMES A'
p1903
(dp1904
S'expenses_log'
p1905
g17
sg4
I719
sg5
g6
sS'bonus_log'
p1906
g17
sg8
g6
sg9
I00
sg10
g6
sS'restricted_stock_log'
p1907
F12.803336482058556
sg12
S'james.hughes@enron.com'
p1908
sg14
g6
sg15
F0.14705882352941177
sS'restricted_stock_deferred_log'
p1909
g17
sS'salary_log'
p1910
g17
sg19
g6
sS'director_fees_log'
p1911
g17
sg21
I589
sg22
g6
sg23
I34
sg24
g6
sS'exercised_stock_options_log'
p1912
F13.534427994104558
sg26
F0.048678720445062586
sg27
g6
sS'total_stock_value_log'
p1913
F13.927404285640426
sg29
g6
sg30
I1118394
sg31
I35
sS'deferral_payments_log'
p1914
g17
sS'other_log'
p1915
g17
sg34
I5
sS'total_payments_log'
p1916
g17
sg36
I363428
sS'long_term_incentive_log'
p1917
g17
sg38
g6
sg39
g6
sg40
I754966
sS'loan_advances_log'
p1918
g17
sS'deferred_income_log'
p1919
g17
ssS'REYNOLDS LAWRENCE'
p1920
(dp1921
S'expenses_log'
p1922
F9.037057839832897
sg4
g6
sg5
I51365
sS'bonus_log'
p1923
F11.512925464970229
sg8
I8409
sg9
I00
sg10
I-200000
sS'restricted_stock_log'
p1924
F12.2134602895641
sg12
g6
sg14
I156250
sg15
g17
sS'restricted_stock_deferred_log'
p1925
g17
sS'salary_log'
p1926
F11.243724886063715
sg19
I-140264
sS'director_fees_log'
p1927
g17
sg21
g6
sg22
g6
sg23
g6
sg24
I202052
sS'exercised_stock_options_log'
p1928
F15.241187157653052
sg26
g17
sg27
g6
sS'total_stock_value_log'
p1929
F15.255793689908863
sg29
I100000
sg30
I4221891
sg31
g6
sS'deferral_payments_log'
p1930
F10.846712285650364
sS'other_log'
p1931
F12.216280368997595
sg34
g6
sS'total_payments_log'
p1932
F12.885311045903869
sg36
I201483
sS'long_term_incentive_log'
p1933
F11.959212567598648
sg38
I76399
sg39
I394475
sg40
I4160672
sS'loan_advances_log'
p1934
g17
sS'deferred_income_log'
p1935
g17
ssS'DIMICHELE RICHARD G'
p1936
(dp1937
S'expenses_log'
p1938
F10.486038311754047
sg4
g6
sg5
g6
sS'bonus_log'
p1939
F13.815510557964274
sg8
I35812
sg9
I00
sg10
g6
sS'restricted_stock_log'
p1940
F11.744251448691996
sg12
S'richard.dimichele@enron.com'
p1941
sg14
I694862
sg15
g17
sS'restricted_stock_deferred_log'
p1942
g17
sS'salary_log'
p1943
F12.47910290244959
sg19
g6
sS'director_fees_log'
p1944
g17
sg21
g6
sg22
g6
sg23
g6
sg24
I374689
sS'exercised_stock_options_log'
p1945
F15.918638718587633
sg26
g17
sg27
g6
sS'total_stock_value_log'
p1946
F15.933906190718423
sg29
I1000000
sg30
I8317782
sg31
g6
sS'deferral_payments_log'
p1947
g17
sS'other_log'
p1948
F12.83385162753207
sg34
g6
sS'total_payments_log'
p1949
F14.677620039844903
sg36
I126027
sS'long_term_incentive_log'
p1950
F13.451468543679974
sg38
I262788
sg39
I2368151
sg40
I8191755
sS'loan_advances_log'
p1951
g17
sS'deferred_income_log'
p1952
g17
ssS'BHATNAGAR SANJAY'
p1953
(dp1954
S'expenses_log'
p1955
g17
sg4
I523
sg5
g6
sS'bonus_log'
p1956
g17
sg8
g6
sg9
I00
sg10
g6
sS'restricted_stock_log'
p1957
g17
sg12
S'sanjay.bhatnagar@enron.com'
p1958
sg14
g6
sg15
F0.034482758620689655
sS'restricted_stock_deferred_log'
p1959
F16.553526598198374
sS'salary_log'
p1960
g17
sg19
I15456290
sS'director_fees_log'
p1961
F11.834022970961414
sg21
I463
sg22
g6
sg23
I29
sg24
I137864
sS'exercised_stock_options_log'
p1962
F14.77274743665147
sg26
F0.0
sg27
I137864
sS'total_stock_value_log'
p1963
g17
sg29
g6
sS'total_stock_value'
p1964
S'NaN'
p1965
sg31
I0
sS'deferral_payments_log'
p1966
g17
sS'other_log'
p1967
F11.834022970961414
sg34
I1
sS'total_payments_log'
p1968
F16.553526598198374
sg36
I-2604490
sS'long_term_incentive_log'
p1969
g17
sg38
g6
sg39
I15456290
sg40
I2604490
sS'loan_advances_log'
p1970
g17
sS'deferred_income_log'
p1971
g17
ssS'CARTER REBECCA C'
p1972
(dp1973
S'expenses_log'
p1974
g17
sg4
I312
sg5
g6
sS'bonus_log'
p1975
F12.611537753638338
sg8
g6
sg9
I00
sg10
I-159792
sS'restricted_stock_log'
p1976
F12.63558300226232
sg12
S'rebecca.carter@enron.com'
p1977
sg14
I75000
sg15
F0.4666666666666667
sS'restricted_stock_deferred_log'
p1978
g17
sS'salary_log'
p1979
F12.475370509254367
sg19
I-307301
sS'director_fees_log'
p1980
g17
sg21
I196
sg22
g6
sg23
I15
sg24
I540
sS'exercised_stock_options_log'
p1981
g17
sg26
F0.09294871794871795
sg27
g6
sS'total_stock_value_log'
p1982
g17
sg29
I300000
sg30
g6
sg31
I29
sS'deferral_payments_log'
p1983
g17
sS'other_log'
p1984
F6.29156913955832
sg34
I7
sS'total_payments_log'
p1985
F13.076438803506433
sg36
I307301
sS'long_term_incentive_log'
p1986
F11.225243392518447
sg38
I261809
sg39
I477557
sg40
g6
sS'loan_advances_log'
p1987
g17
sS'deferred_income_log'
p1988
g17
ssS'BUCHANAN HAROLD G'
p1989
(dp1990
S'expenses_log'
p1991
F6.396929655216146
sg4
I1088
sg5
g6
sS'bonus_log'
p1992
F13.122363377404328
sg8
I600
sg9
I00
sg10
g6
sS'restricted_stock_log'
p1993
F12.149719201732536
sg12
S'john.buchanan@enron.com'
p1994
sg14
I304805
sg15
F0.0
sS'restricted_stock_deferred_log'
p1995
g17
sS'salary_log'
p1996
F12.421252571184883
sg19
g6
sS'director_fees_log'
p1997
g17
sg21
I23
sg22
g6
sg23
I125
sg24
I1215
sS'exercised_stock_options_log'
p1998
F13.623700931458005
sg26
F0.0
sg27
g6
sS'total_stock_value_log'
p1999
F13.829911366772086
sg29
I500000
sg30
I1014505
sg31
I0
sS'deferral_payments_log'
p2000
g17
sS'other_log'
p2001
F7.102499355774649
sg34
I0
sS'total_payments_log'
p2002
F13.86870718985525
sg36
I189041
sS'long_term_incentive_log'
p2003
F12.627427506859556
sg38
I248017
sg39
I1054637
sg40
I825464
sS'loan_advances_log'
p2004
g17
sS'deferred_income_log'
p2005
g17
ssS'YEAP SOON'
p2006
(dp2007
S'expenses_log'
p2008
F10.916850547197763
sg4
g6
sg5
g6
sS'bonus_log'
p2009
g17
sg8
I55097
sg9
I00
sg10
g6
sS'restricted_stock_log'
p2010
g17
sg12
g6
sg14
g6
sg15
g17
sS'restricted_stock_deferred_log'
p2011
g17
sS'salary_log'
p2012
g17
sg19
g6
sS'director_fees_log'
p2013
g17
sg21
g6
sg22
g6
sg23
g6
sg24
g6
sS'exercised_stock_options_log'
p2014
F12.169190795103844
sg26
g17
sg27
g6
sS'total_stock_value_log'
p2015
F12.169190795103844
sg29
g6
sg30
I192758
sg31
g6
sS'deferral_payments_log'
p2016
g17
sS'other_log'
p2017
g17
sg34
g6
sS'total_payments_log'
p2018
F10.916850547197763
sg36
g6
sS'long_term_incentive_log'
p2019
g17
sg38
g6
sg39
I55097
sg40
I192758
sS'loan_advances_log'
p2020
g17
sS'deferred_income_log'
p2021
g17
ssS'MURRAY JULIA H'
p2022
(dp2023
S'expenses_log'
p2024
F10.960930564166167
sg4
I2192
sg5
g6
sS'bonus_log'
p2025
F12.89921982609012
sg8
I57580
sg9
I00
sg10
g6
sS'restricted_stock_log'
p2026
F12.190872709580304
sg12
S'julia.murray@enron.com'
p2027
sg14
I125000
sg15
F0.044444444444444446
sS'restricted_stock_deferred_log'
p2028
g17
sS'salary_log'
p2029
F12.342716688827476
sg19
g6
sS'director_fees_log'
p2030
g17
sg21
I395
sg22
g6
sg23
I45
sg24
I330
sS'exercised_stock_options_log'
p2031
F12.90041411264594
sg26
F0.005018248175182482
sg27
g6
sS'total_stock_value_log'
p2032
F13.300444288690969
sg29
I400000
sg30
I597461
sg31
I11
sS'deferral_payments_log'
p2033
g17
sS'other_log'
p2034
F5.799092654460526
sg34
I2
sS'total_payments_log'
p2035
F13.607494506864029
sg36
I196983
sS'long_term_incentive_log'
p2036
F11.736069016284437
sg38
I229284
sg39
I812194
sg40
I400478
sS'loan_advances_log'
p2037
g17
sS'deferred_income_log'
p2038
g17
ssS'GARLAND C KEVIN'
p2039
(dp2040
S'expenses_log'
p2041
F10.787358393154172
sg4
I209
sg5
g6
sS'bonus_log'
p2042
F13.652991628466498
sg8
I48405
sg9
I00
sg10
g6
sS'restricted_stock_log'
p2043
F12.46807915370282
sg12
S'kevin.garland@enron.com'
p2044
sg14
I375304
sg15
F0.6136363636363636
sS'restricted_stock_deferred_log'
p2045
g17
sS'salary_log'
p2046
F12.354259864935266
sg19
g6
sS'director_fees_log'
p2047
g17
sg21
I178
sg22
g6
sg23
I44
sg24
I60814
sS'exercised_stock_options_log'
p2048
F13.363340559990172
sg26
F0.04784688995215311
sg27
g6
sS'total_stock_value_log'
p2049
F13.705866436307993
sg29
I850000
sg30
I896153
sg31
I10
sS'deferral_payments_log'
p2050
g17
sS'other_log'
p2051
F11.015575304605662
sg34
I27
sS'total_payments_log'
p2052
F14.26433459983928
sg36
I259907
sS'long_term_incentive_log'
p2053
F12.835491643206469
sg38
I231946
sg39
I1566469
sg40
I636246
sS'loan_advances_log'
p2054
g17
sS'deferred_income_log'
p2055
g17
ssS'DODSON KEITH'
p2056
(dp2057
S'expenses_log'
p2058
F10.245799845639024
sg4
I176
sg5
g6
sS'bonus_log'
p2059
F11.156250521031495
sg8
I28164
sg9
I00
sg10
g6
sS'restricted_stock_log'
p2060
g17
sg12
S'keith.dodson@enron.com'
p2061
sg14
g6
sg15
F0.21428571428571427
sS'restricted_stock_deferred_log'
p2062
g17
sS'salary_log'
p2063
F12.305931555068389
sg19
g6
sS'director_fees_log'
p2064
g17
sg21
I114
sg22
g6
sg23
I14
sg24
I774
sS'exercised_stock_options_log'
p2065
g17
sg26
F0.056818181818181816
sg27
g6
sS'total_stock_value_log'
p2066
g17
sg29
I70000
sg30
g6
sg31
I10
sS'deferral_payments_log'
p2067
g17
sS'other_log'
p2068
F6.651571873589727
sg34
I3
sS'total_payments_log'
p2069
F12.67589188277675
sg36
g6
sS'long_term_incentive_log'
p2070
g17
sg38
I221003
sg39
I319941
sg40
g6
sS'loan_advances_log'
p2071
g17
sS'deferred_income_log'
p2072
g17
ssS'YEAGER F SCOTT'
p2073
(dp2074
S'expenses_log'
p2075
F10.895757362096592
sg4
g6
sg5
g6
sS'bonus_log'
p2076
g17
sg8
I53947
sg9
I01
sg10
g6
sS'restricted_stock_log'
p2077
F15.089813019880348
sg12
S'scott.yeager@enron.com'
p2078
sg14
g6
sg15
g17
sS'restricted_stock_deferred_log'
p2079
g17
sS'salary_log'
p2080
F11.972897697577054
sg19
g6
sS'director_fees_log'
p2081
g17
sg21
g6
sg22
g6
sg23
g6
sg24
I147950
sS'exercised_stock_options_log'
p2082
F15.932795903754599
sg26
g17
sg27
g6
sS'total_stock_value_log'
p2083
F16.29076729676854
sg29
g6
sg30
I11884758
sg31
g6
sS'deferral_payments_log'
p2084
g17
sS'other_log'
p2085
F11.904629657828355
sg34
g6
sS'total_payments_log'
p2086
F12.794692296736185
sg36
I3576206
sS'long_term_incentive_log'
p2087
g17
sg38
I158403
sg39
I360300
sg40
I8308552
sS'loan_advances_log'
p2088
g17
sS'deferred_income_log'
p2089
g17
ssS'HIRKO JOSEPH'
p2090
(dp2091
S'expenses_log'
p2092
F11.264182014605733
sg4
g6
sg5
I10259
sS'bonus_log'
p2093
g17
sg8
I77978
sg9
I01
sg10
g6
sS'restricted_stock_log'
p2094
g17
sg12
S'joe.hirko@enron.com'
p2095
sg14
g6
sg15
g17
sS'restricted_stock_deferred_log'
p2096
g17
sS'salary_log'
p2097
g17
sg19
g6
sS'director_fees_log'
p2098
g17
sg21
g6
sg22
g6
sg23
g6
sg24
I2856
sS'exercised_stock_options_log'
p2099
F17.24192282231409
sg26
g17
sg27
g6
sS'total_stock_value_log'
p2100
F17.24192282231409
sg29
g6
sg30
I30766064
sg31
g6
sS'deferral_payments_log'
p2101
F9.235910648087712
sS'other_log'
p2102
F7.957177323459475
sg34
g6
sS'total_payments_log'
p2103
F11.419636241656951
sg36
g6
sS'long_term_incentive_log'
p2104
g17
sg38
g6
sg39
I91093
sg40
I30766064
sS'loan_advances_log'
p2105
g17
sS'deferred_income_log'
p2106
g17
ssS'DIETRICH JANET R'
p2107
(dp2108
S'expenses_log'
p2109
F8.153349757998892
sg4
I2572
sg5
g6
sS'bonus_log'
p2110
F13.304684934198283
sg8
I3475
sg9
I00
sg10
g6
sS'restricted_stock_log'
p2111
F12.660543767526416
sg12
S'janet.dietrich@enron.com'
p2112
sg14
I556416
sg15
F0.2222222222222222
sS'restricted_stock_deferred_log'
p2113
g17
sS'salary_log'
p2114
F12.429616116865711
sg19
g6
sS'director_fees_log'
p2115
g17
sg21
I1902
sg22
g6
sg23
I63
sg24
I473
sS'exercised_stock_options_log'
p2116
F14.253777746884817
sg26
F0.11858475894245724
sg27
g6
sS'total_stock_value_log'
p2117
F14.438818258765597
sg29
I600000
sg30
I1865087
sg31
I305
sS'deferral_payments_log'
p2118
g17
sS'other_log'
p2119
F6.159095388491933
sg34
I14
sS'total_payments_log'
p2120
F14.159429286234241
sg36
I315068
sS'long_term_incentive_log'
p2121
F13.22927149490841
sg38
I250100
sg39
I1410464
sg40
I1550019
sS'loan_advances_log'
p2122
g17
sS'deferred_income_log'
p2123
g17
ssS'DERRICK JR. JAMES V'
p2124
(dp2125
S'expenses_log'
p2126
F10.842009333251605
sg4
I2181
sg5
g6
sS'bonus_log'
p2127
F13.592367006650065
sg8
I51124
sg9
I00
sg10
I-1284000
sS'restricted_stock_log'
p2128
F14.396261418429654
sg12
S'james.derrick@enron.com'
p2129
sg14
I484000
sg15
F0.022002200220022004
sS'restricted_stock_deferred_log'
p2130
g17
sS'salary_log'
p2131
F13.106995900273207
sg19
I-1787380
sS'director_fees_log'
p2132
g17
sg21
I1401
sg22
g6
sg23
I909
sg24
I7482
sS'exercised_stock_options_log'
p2133
F15.993882196907018
sg26
F0.029344337459880788
sg27
g6
sS'total_stock_value_log'
p2134
F15.993882196907018
sg29
I800000
sg30
I8831913
sg31
I64
sS'deferral_payments_log'
p2135
g17
sS'other_log'
p2136
F8.920255414908091
sg34
I20
sS'total_payments_log'
p2137
F13.219455604781887
sg36
I1787380
sS'long_term_incentive_log'
p2138
F13.089840185698769
sg38
I492375
sg39
I550981
sg40
I8831913
sS'loan_advances_log'
p2139
g17
sS'deferred_income_log'
p2140
g17
ssS'FREVERT MARK A'
p2141
(dp2142
S'expenses_log'
p2143
F11.373513961184294
sg4
I3275
sg5
I6426990
sS'bonus_log'
p2144
F14.508657738524219
sg8
I86987
sg9
I00
sg10
I-3367011
sS'restricted_stock_log'
p2145
F15.247893102856736
sg12
S'mark.frevert@enron.com'
p2146
sg14
I1617011
sg15
F0.2857142857142857
sS'restricted_stock_deferred_log'
p2147
g17
sS'salary_log'
p2148
F13.874658325061558
sg19
g6
sS'director_fees_log'
p2149
g17
sg21
I2979
sg22
I2000000
sg23
I21
sg24
I7427621
sS'exercised_stock_options_log'
p2150
F16.160534066366147
sg26
F0.07389312977099237
sg27
g6
sS'total_stock_value_log'
p2151
F16.498050453923327
sg29
I2000000
sg30
I14622185
sg31
I242
sS'deferral_payments_log'
p2152
F15.676016868416317
sS'other_log'
p2153
F15.820716176997381
sg34
I6
sS'total_payments_log'
p2154
F16.663469357353804
sg36
I4188667
sS'long_term_incentive_log'
p2155
F14.296089941257193
sg38
I1060932
sg39
I17252530
sg40
I10433518
sS'loan_advances_log'
p2156
F14.508657738524219
sS'deferred_income_log'
p2157
g17
ssS'PAI LOU L'
p2158
(dp2159
S'expenses_log'
p2160
F10.374958854223562
sg4
g6
sg5
g6
sS'bonus_log'
p2161
F13.815510557964274
sg8
I32047
sg9
I00
sg10
g6
sS'restricted_stock_log'
p2162
F15.950122225649196
sg12
S'lou.pai@enron.com'
p2163
sg14
g6
sg15
g17
sS'restricted_stock_deferred_log'
p2164
g17
sS'salary_log'
p2165
F12.475637844004893
sg19
g6
sS'director_fees_log'
p2166
g17
sg21
g6
sg22
g6
sg23
g6
sg24
I1829457
sS'exercised_stock_options_log'
p2167
F16.547548537954075
sg26
g17
sg27
g6
sS'total_stock_value_log'
p2168
F16.985949216352026
sg29
I1000000
sg30
I23817930
sg31
g6
sS'deferral_payments_log'
p2169
g17
sS'other_log'
p2170
F14.41952975947565
sg34
g6
sS'total_payments_log'
p2171
F14.954427267234363
sg36
I8453763
sS'long_term_incentive_log'
p2172
g17
sg38
I261879
sg39
I3123383
sg40
I15364167
sS'loan_advances_log'
p2173
g17
sS'deferred_income_log'
p2174
g17
ssS'BAY FRANKLIN R'
p2175
(dp2176
S'expenses_log'
p2177
F11.768667853128832
sg4
g6
sg5
I260455
sS'bonus_log'
p2178
F12.89921982609012
sg8
I129142
sg9
I00
sg10
I-201641
sS'restricted_stock_log'
p2179
F11.889963663338103
sg12
S'frank.bay@enron.com'
p2180
sg14
g6
sg15
g17
sS'restricted_stock_deferred_log'
p2181
g17
sS'salary_log'
p2182
F12.387022428539215
sg19
I-82782
sS'director_fees_log'
p2183
g17
sg21
g6
sg22
g6
sg23
g6
sg24
I69
sS'exercised_stock_options_log'
p2184
g17
sg26
g17
sg27
g6
sS'total_stock_value_log'
p2185
F11.051112202908191
sg29
I400000
sg30
I63014
sg31
g6
sS'deferral_payments_log'
p2186
F12.470185380531781
sS'other_log'
p2187
F4.23410650459726
sg34
g6
sS'total_payments_log'
p2188
F13.626401216192969
sg36
I145796
sS'long_term_incentive_log'
p2189
g17
sg38
I239671
sg39
I827696
sg40
g6
sS'loan_advances_log'
p2190
g17
sS'deferred_income_log'
p2191
g17
ssS'HAYSLETT RODERICK J'
p2192
(dp2193
S'expenses_log'
p2194
g17
sg4
I2649
sg5
g6
sS'bonus_log'
p2195
g17
sg8
g6
sg9
I00
sg10
g6
sS'restricted_stock_log'
p2196
F12.756108405470433
sg12
S'rod.hayslett@enron.com'
p2197
sg14
g6
sg15
F0.03581526861451461
sS'restricted_stock_deferred_log'
p2198
g17
sS'salary_log'
p2199
g17
sg19
g6
sS'director_fees_log'
p2200
g17
sg21
I571
sg22
g6
sg23
I1061
sg24
g6
sS'exercised_stock_options_log'
p2201
g17
sg26
F0.01321253303133258
sg27
g6
sS'total_stock_value_log'
p2202
F12.756108405470433
sg29
g6
sg30
I346663
sg31
I35
sS'deferral_payments_log'
p2203
g17
sS'other_log'
p2204
g17
sg34
I38
sS'total_payments_log'
p2205
g17
sg36
I346663
sS'long_term_incentive_log'
p2206
g17
sg38
g6
sg39
g6
sg40
g6
sS'loan_advances_log'
p2207
g17
sS'deferred_income_log'
p2208
g17
ssS'FUGH JOHN L'
p2209
(dp2210
S'expenses_log'
p2211
g17
sg4
g6
sg5
I50591
sS'bonus_log'
p2212
g17
sg8
g6
sg9
I00
sg10
g6
sS'restricted_stock_log'
p2213
g17
sg12
g6
sg14
g6
sg15
g17
sS'restricted_stock_deferred_log'
p2214
g17
sS'salary_log'
p2215
g17
sg19
g6
sS'director_fees_log'
p2216
g17
sg21
g6
sg22
g6
sg23
g6
sg24
g6
sS'exercised_stock_options_log'
p2217
F12.080384698223783
sg26
g17
sg27
g6
sS'total_stock_value_log'
p2218
F12.080384698223783
sg29
g6
sg30
I176378
sg31
g6
sS'deferral_payments_log'
p2219
F10.831528973842945
sS'other_log'
p2220
g17
sg34
g6
sS'total_payments_log'
p2221
F10.831528973842945
sg36
g6
sS'long_term_incentive_log'
p2222
g17
sg38
g6
sg39
I50591
sg40
I176378
sS'loan_advances_log'
p2223
g17
sS'deferred_income_log'
p2224
g17
ssS'FALLON JAMES B'
p2225
(dp2226
S'expenses_log'
p2227
F11.471311490249764
sg4
I1755
sg5
g6
sS'bonus_log'
p2228
F14.73180128983843
sg8
I95924
sg9
I00
sg10
g6
sS'restricted_stock_log'
p2229
F14.146354126167937
sg12
S'jim.fallon@enron.com'
p2230
sg14
I374347
sg15
F0.49333333333333335
sS'restricted_stock_deferred_log'
p2231
g17
sS'salary_log'
p2232
F12.626715322738072
sg19
g6
sS'director_fees_log'
p2233
g17
sg21
I1604
sg22
g6
sg23
I75
sg24
I401481
sS'exercised_stock_options_log'
p2234
F13.753908521133374
sg26
F0.023931623931623933
sg27
g6
sS'total_stock_value_log'
p2235
F14.66240790958712
sg29
I2500000
sg30
I2332399
sg31
I42
sS'deferral_payments_log'
p2236
g17
sS'other_log'
p2237
F12.902915488708734
sg34
I37
sS'total_payments_log'
p2238
F15.117428250019564
sg36
I1392142
sS'long_term_incentive_log'
p2239
F12.832938453735975
sg38
I304588
sg39
I3676340
sg40
I940257
sS'loan_advances_log'
p2240
g17
sS'deferred_income_log'
p2241
g17
ssS'KOENIG MARK E'
p2242
(dp2243
S'expenses_log'
p2244
F11.752076214750227
sg4
I2374
sg5
g6
sS'bonus_log'
p2245
F13.458835614025542
sg8
I127017
sg9
I01
sg10
g6
sS'restricted_stock_log'
p2246
F14.037307603145852
sg12
S'mark.koenig@enron.com'
p2247
sg14
I300000
sg15
F0.2459016393442623
sS'restricted_stock_deferred_log'
p2248
g17
sS'salary_log'
p2249
F12.644153367739484
sg19
g6
sS'director_fees_log'
p2250
g17
sg21
I2271
sg22
g6
sg23
I61
sg24
I150458
sS'exercised_stock_options_log'
p2251
F13.417622173852815
sg26
F0.02232518955349621
sg27
g6
sS'total_stock_value_log'
p2252
F14.467864389427014
sg29
I700000
sg30
I1920055
sg31
I53
sS'deferral_payments_log'
p2253
g17
sS'other_log'
p2254
F11.921439254456413
sg34
I15
sS'total_payments_log'
p2255
F14.277621244731199
sg36
I1248318
sS'long_term_incentive_log'
p2256
F12.611537753638338
sg38
I309946
sg39
I1587421
sg40
I671737
sS'loan_advances_log'
p2257
g17
sS'deferred_income_log'
p2258
g17
ssS'SAVAGE FRANK'
p2259
(dp2260
S'expenses_log'
p2261
g17
sg4
g6
sg5
g6
sS'bonus_log'
p2262
g17
sg8
g6
sg9
I00
sg10
I-121284
sS'restricted_stock_log'
p2263
g17
sg12
g6
sg14
g6
sg15
g17
sS'restricted_stock_deferred_log'
p2264
g17
sS'salary_log'
p2265
g17
sg19
g6
sS'director_fees_log'
p2266
F11.736340979299145
sg21
g6
sg22
g6
sg23
g6
sg24
g6
sS'exercised_stock_options_log'
p2267
g17
sg26
g17
sg27
I125034
sS'total_stock_value_log'
p2268
g17
sg29
g6
sg30
g6
sg31
g6
sS'deferral_payments_log'
p2269
g17
sS'other_log'
p2270
g17
sg34
g6
sS'total_payments_log'
p2271
F8.229511118964457
sg36
g6
sS'long_term_incentive_log'
p2272
g17
sg38
g6
sg39
I3750
sg40
g6
sS'loan_advances_log'
p2273
g17
sS'deferred_income_log'
p2274
g17
ssS'IZZO LAWRENCE L'
p2275
(dp2276
S'expenses_log'
p2277
F10.243275713968423
sg4
I496
sg5
g6
sS'bonus_log'
p2278
g17
sg8
I28093
sg9
I00
sg10
g6
sS'restricted_stock_log'
p2279
F15.111554119006472
sg12
S'larry.izzo@enron.com'
p2280
sg14
I312500
sg15
F0.2631578947368421
sS'restricted_stock_deferred_log'
p2281
g17
sS'salary_log'
p2282
F11.353624880451743
sg19
g6
sS'director_fees_log'
p2283
g17
sg21
I437
sg22
g6
sg23
I19
sg24
I1553729
sS'exercised_stock_options_log'
p2284
F14.588010361990566
sg26
F0.056451612903225805
sg27
g6
sS'total_stock_value_log'
p2285
F15.576807383275598
sg29
g6
sg30
I5819980
sg31
I28
sS'deferral_payments_log'
p2286
g17
sS'other_log'
p2287
F14.256168406027868
sg34
I5
sS'total_payments_log'
p2288
F14.498403341447602
sg36
I3654808
sS'long_term_incentive_log'
p2289
F12.652359748158593
sg38
I85274
sg39
I1979596
sg40
I2165172
sS'loan_advances_log'
p2290
g17
sS'deferred_income_log'
p2291
g17
ssS'TILNEY ELIZABETH A'
p2292
(dp2293
S'expenses_log'
p2294
g17
sg4
I460
sg5
g6
sS'bonus_log'
p2295
F12.611537753638338
sg8
g6
sg9
I00
sg10
I-575000
sS'restricted_stock_log'
p2296
F13.265236995231172
sg12
S'elizabeth.tilney@enron.com'
p2297
sg14
I275000
sg15
F0.5789473684210527
sS'restricted_stock_deferred_log'
p2298
g17
sS'salary_log'
p2299
F12.418511101227939
sg19
g6
sS'director_fees_log'
p2300
g17
sg21
I379
sg22
g6
sg23
I19
sg24
I152055
sS'exercised_stock_options_log'
p2301
F13.28999421878828
sg26
F0.021739130434782608
sg27
g6
sS'total_stock_value_log'
p2302
F13.970839400627913
sg29
I300000
sg30
I1168042
sg31
I10
sS'deferral_payments_log'
p2303
g17
sS'other_log'
p2304
F11.93199757648461
sg34
I11
sS'total_payments_log'
p2305
F12.897701173520831
sg36
I576792
sS'long_term_incentive_log'
p2306
F12.524526376648708
sg38
I247338
sg39
I399393
sg40
I591250
sS'loan_advances_log'
p2307
g17
sS'deferred_income_log'
p2308
g17
ssS'MARTIN AMANDA K'
p2309
(dp2310
S'expenses_log'
p2311
F9.01322999770879
sg4
I1522
sg5
I85430
sS'bonus_log'
p2312
g17
sg8
I8211
sg9
I00
sg10
g6
sS'restricted_stock_log'
p2313
g17
sg12
S'a..martin@enron.com'
p2314
sg14
I5145434
sg15
F0.0
sS'restricted_stock_deferred_log'
p2315
g17
sS'salary_log'
p2316
F12.764221643969936
sg19
g6
sS'director_fees_log'
p2317
g17
sg21
I477
sg22
g6
sg23
I230
sg24
I2818454
sS'exercised_stock_options_log'
p2318
F14.543206980403308
sg26
F0.005256241787122208
sg27
g6
sS'total_stock_value_log'
p2319
F14.543206980403308
sg29
g6
sg30
I2070306
sg31
I8
sS'deferral_payments_log'
p2320
F11.355452606145665
sS'other_log'
p2321
F14.851699065632602
sg34
I0
sS'total_payments_log'
p2322
F15.944577153291547
sg36
g6
sS'long_term_incentive_log'
p2323
F15.453620277434206
sg38
I349487
sg39
I8407016
sg40
I2070306
sS'loan_advances_log'
p2324
g17
sS'deferred_income_log'
p2325
g17
ssS'BUY RICHARD B'
p2326
(dp2327
S'expenses_log'
p2328
g17
sg4
I3523
sg5
I649584
sS'bonus_log'
p2329
F13.710150042306449
sg8
g6
sg9
I00
sg10
I-694862
sS'restricted_stock_log'
p2330
F13.711989460649894
sg12
S'rick.buy@enron.com'
p2331
sg14
I769862
sg15
F0.06742640075973409
sS'restricted_stock_deferred_log'
p2332
g17
sS'salary_log'
p2333
F12.708501111644791
sg19
g6
sS'director_fees_log'
p2334
g17
sg21
I2333
sg22
g6
sg23
I1053
sg24
I400572
sS'exercised_stock_options_log'
p2335
F14.74878150650576
sg26
F0.04428044280442804
sg27
g6
sS'total_stock_value_log'
p2336
F15.052280604440517
sg29
I900000
sg30
I3444470
sg31
I156
sS'deferral_payments_log'
p2337
F13.384087436984396
sS'other_log'
p2338
F12.90064880461381
sg34
I71
sS'total_payments_log'
p2339
F14.672349330184879
sg36
I901657
sS'long_term_incentive_log'
p2340
F13.553966556988684
sg38
I330546
sg39
I2355702
sg40
I2542813
sS'loan_advances_log'
p2341
g17
sS'deferred_income_log'
p2342
g17
ssS'GRAMM WENDY L'
p2343
(dp2344
S'expenses_log'
p2345
g17
sg4
g6
sg5
g6
sS'bonus_log'
p2346
g17
sg8
g6
sg9
I00
sg10
g6
sS'restricted_stock_log'
p2347
g17
sg12
g6
sg14
g6
sg15
g17
sS'restricted_stock_deferred_log'
p2348
g17
sS'salary_log'
p2349
g17
sg19
g6
sS'director_fees_log'
p2350
F11.689329548000146
sg21
g6
sg22
g6
sg23
g6
sg24
g6
sS'exercised_stock_options_log'
p2351
g17
sg26
g17
sg27
I119292
sS'total_stock_value_log'
p2352
g17
sg29
g6
sg30
g6
sg31
g6
sS'deferral_payments_log'
p2353
g17
sS'other_log'
p2354
g17
sg34
g6
sS'total_payments_log'
p2355
F11.689329548000146
sg36
g6
sS'long_term_incentive_log'
p2356
g17
sg38
g6
sg39
I119292
sg40
g6
sS'loan_advances_log'
p2357
g17
sS'deferred_income_log'
p2358
g17
ssS'CAUSEY RICHARD A'
p2359
(dp2360
S'expenses_log'
p2361
F10.331170669210724
sg4
I1892
sg5
g6
sS'bonus_log'
p2362
F13.815510557964274
sg8
I30674
sg9
I01
sg10
I-235000
sS'restricted_stock_log'
p2363
F14.732626149548102
sg12
S'richard.causey@enron.com'
p2364
sg14
I350000
sg15
F0.24489795918367346
sS'restricted_stock_deferred_log'
p2365
g17
sS'salary_log'
p2366
F12.936489117226602
sg19
g6
sS'director_fees_log'
p2367
g17
sg21
I1585
sg22
g6
sg23
I49
sg24
I307895
sS'exercised_stock_options_log'
p2368
g17
sg26
F0.0306553911205074
sg27
g6
sS'total_stock_value_log'
p2369
F14.732626149548102
sg29
I1000000
sg30
I2502063
sg31
I58
sS'deferral_payments_log'
p2370
g17
sS'other_log'
p2371
F12.637514094742087
sg34
I12
sS'total_payments_log'
p2372
F14.440784597048426
sg36
I2502063
sS'long_term_incentive_log'
p2373
F12.765688433465597
sg38
I415189
sg39
I1868758
sg40
g6
sS'loan_advances_log'
p2374
g17
sS'deferred_income_log'
p2375
g17
ssS'TAYLOR MITCHELL S'
p2376
(dp2377
S'expenses_log'
p2378
g17
sg4
I533
sg5
I227449
sS'bonus_log'
p2379
F13.304684934198283
sg8
g6
sg9
I00
sg10
g6
sS'restricted_stock_log'
p2380
F13.24245131029864
sg12
S'mitchell.taylor@enron.com'
p2381
sg14
g6
sg15
F0.0
sS'restricted_stock_deferred_log'
p2382
g17
sS'salary_log'
p2383
F12.488292326247391
sg19
g6
sS'director_fees_log'
p2384
g17
sg21
I300
sg22
g6
sg23
I29
sg24
g6
sS'exercised_stock_options_log'
p2385
F14.97278475928097
sg26
F0.0
sg27
g6
sS'total_stock_value_log'
p2386
F15.135944991940772
sg29
I600000
sg30
I3745048
sg31
I0
sS'deferral_payments_log'
p2387
F12.33468131641781
sS'other_log'
p2388
g17
sg34
I0
sS'total_payments_log'
p2389
F13.904128393907474
sg36
I563798
sS'long_term_incentive_log'
p2390
g17
sg38
I265214
sg39
I1092663
sg40
I3181250
sS'loan_advances_log'
p2391
g17
sS'deferred_income_log'
p2392
g17
ssS'DONAHUE JR JEFFREY M'
p2393
(dp2394
S'expenses_log'
p2395
F11.474891247652295
sg4
I865
sg5
g6
sS'bonus_log'
p2396
F13.592367006650065
sg8
I96268
sg9
I00
sg10
I-300000
sS'restricted_stock_log'
p2397
F12.660543767526416
sg12
S'jeff.donahue@enron.com'
p2398
sg14
g6
sg15
F0.5
sS'restricted_stock_deferred_log'
p2399
g17
sS'salary_log'
p2400
F12.53753592969685
sg19
g6
sS'director_fees_log'
p2401
g17
sg21
I772
sg22
g6
sg23
I22
sg24
I891
sS'exercised_stock_options_log'
p2402
F13.548833004626337
sg26
F0.21734104046242775
sg27
g6
sS'total_stock_value_log'
p2403
F13.893385995727169
sg29
I800000
sg30
I1080988
sg31
I188
sS'deferral_payments_log'
p2404
g17
sS'other_log'
p2405
F6.792344427470809
sg34
I11
sS'total_payments_log'
p2406
F13.682847359778439
sg36
I315068
sS'long_term_incentive_log'
p2407
g17
sg38
I278601
sg39
I875760
sg40
I765920
sS'loan_advances_log'
p2408
g17
sS'deferred_income_log'
p2409
g17
ssS'GLISAN JR BEN F'
p2410
(dp2411
S'expenses_log'
p2412
F11.743862567514103
sg4
I873
sg5
g6
sS'bonus_log'
p2413
F13.304684934198283
sg8
I125978
sg9
I01
sg10
g6
sS'restricted_stock_log'
p2414
F12.883644152624024
sg12
S'ben.glisan@enron.com'
p2415
sg14
I71023
sg15
F0.375
sS'restricted_stock_deferred_log'
p2416
g17
sS'salary_log'
p2417
F12.524435463425318
sg19
g6
sS'director_fees_log'
p2418
g17
sg21
I874
sg22
g6
sg23
I16
sg24
I200308
sS'exercised_stock_options_log'
p2419
F12.860291870079283
sg26
F0.05956471935853379
sg27
g6
sS'total_stock_value_log'
p2420
F13.565183356500288
sg29
I600000
sg30
I778546
sg31
I52
sS'deferral_payments_log'
p2421
g17
sS'other_log'
p2422
F12.207611460946191
sg34
I6
sS'total_payments_log'
p2423
F14.05632426840132
sg36
I393818
sS'long_term_incentive_log'
p2424
F11.170759047227005
sg38
I274975
sg39
I1272284
sg40
I384728
sS'loan_advances_log'
p2425
g17
sS'deferred_income_log'
p2426
g17
ss.