(lp0
S'poi'
p1
aS'salary'
p2
aS'deferral_payments'
p3
aS'total_payments'
p4
aS'exercised_stock_options'
p5
aS'bonus'
p6
aS'restricted_stock'
p7
aS'restricted_stock_deferred'
p8
aS'total_stock_value'
p9
aS'expenses'
p10
aS'loan_advances'
p11
aS'other'
p12
aS'director_fees'
p13
aS'deferred_income'
p14
aS'long_term_incentive'
p15
aS'to_messages'
p16
aS'shared_receipt_with_poi'
p17
aS'from_messages'
p18
aS'from_this_person_to_poi'
p19
aS'from_poi_to_this_person'
p20
aS'poi_ratio_from'
p21
aS'poi_ratio_to'
p22
aS'total_payments_log'
p23
aS'salary_log'
p24
aS'bonus_log'
p25
aS'total_stock_value_log'
p26
aS'exercised_stock_options_log'
p27
a.